
ctarget:     file format elf64-x86-64


Disassembly of section .init:

0000000000400bc8 <_init>:
  400bc8:	48 83 ec 08          	sub    $0x8,%rsp
  400bcc:	48 8b 05 25 34 20 00 	mov    0x203425(%rip),%rax        # 603ff8 <__gmon_start__>
  400bd3:	48 85 c0             	test   %rax,%rax
  400bd6:	74 05                	je     400bdd <_init+0x15>
  400bd8:	e8 33 01 00 00       	call   400d10 <__gmon_start__@plt>
  400bdd:	48 83 c4 08          	add    $0x8,%rsp
  400be1:	c3                   	ret    

Disassembly of section .plt:

0000000000400bf0 <.plt>:
  400bf0:	ff 35 12 34 20 00    	push   0x203412(%rip)        # 604008 <_GLOBAL_OFFSET_TABLE_+0x8>
  400bf6:	ff 25 14 34 20 00    	jmp    *0x203414(%rip)        # 604010 <_GLOBAL_OFFSET_TABLE_+0x10>
  400bfc:	0f 1f 40 00          	nopl   0x0(%rax)

0000000000400c00 <strcasecmp@plt>:
  400c00:	ff 25 12 34 20 00    	jmp    *0x203412(%rip)        # 604018 <strcasecmp@GLIBC_2.2.5>
  400c06:	68 00 00 00 00       	push   $0x0
  400c0b:	e9 e0 ff ff ff       	jmp    400bf0 <.plt>

0000000000400c10 <__errno_location@plt>:
  400c10:	ff 25 0a 34 20 00    	jmp    *0x20340a(%rip)        # 604020 <__errno_location@GLIBC_2.2.5>
  400c16:	68 01 00 00 00       	push   $0x1
  400c1b:	e9 d0 ff ff ff       	jmp    400bf0 <.plt>

0000000000400c20 <srandom@plt>:
  400c20:	ff 25 02 34 20 00    	jmp    *0x203402(%rip)        # 604028 <srandom@GLIBC_2.2.5>
  400c26:	68 02 00 00 00       	push   $0x2
  400c2b:	e9 c0 ff ff ff       	jmp    400bf0 <.plt>

0000000000400c30 <strncmp@plt>:
  400c30:	ff 25 fa 33 20 00    	jmp    *0x2033fa(%rip)        # 604030 <strncmp@GLIBC_2.2.5>
  400c36:	68 03 00 00 00       	push   $0x3
  400c3b:	e9 b0 ff ff ff       	jmp    400bf0 <.plt>

0000000000400c40 <strcpy@plt>:
  400c40:	ff 25 f2 33 20 00    	jmp    *0x2033f2(%rip)        # 604038 <strcpy@GLIBC_2.2.5>
  400c46:	68 04 00 00 00       	push   $0x4
  400c4b:	e9 a0 ff ff ff       	jmp    400bf0 <.plt>

0000000000400c50 <puts@plt>:
  400c50:	ff 25 ea 33 20 00    	jmp    *0x2033ea(%rip)        # 604040 <puts@GLIBC_2.2.5>
  400c56:	68 05 00 00 00       	push   $0x5
  400c5b:	e9 90 ff ff ff       	jmp    400bf0 <.plt>

0000000000400c60 <write@plt>:
  400c60:	ff 25 e2 33 20 00    	jmp    *0x2033e2(%rip)        # 604048 <write@GLIBC_2.2.5>
  400c66:	68 06 00 00 00       	push   $0x6
  400c6b:	e9 80 ff ff ff       	jmp    400bf0 <.plt>

0000000000400c70 <mmap@plt>:
  400c70:	ff 25 da 33 20 00    	jmp    *0x2033da(%rip)        # 604050 <mmap@GLIBC_2.2.5>
  400c76:	68 07 00 00 00       	push   $0x7
  400c7b:	e9 70 ff ff ff       	jmp    400bf0 <.plt>

0000000000400c80 <printf@plt>:
  400c80:	ff 25 d2 33 20 00    	jmp    *0x2033d2(%rip)        # 604058 <printf@GLIBC_2.2.5>
  400c86:	68 08 00 00 00       	push   $0x8
  400c8b:	e9 60 ff ff ff       	jmp    400bf0 <.plt>

0000000000400c90 <memset@plt>:
  400c90:	ff 25 ca 33 20 00    	jmp    *0x2033ca(%rip)        # 604060 <memset@GLIBC_2.2.5>
  400c96:	68 09 00 00 00       	push   $0x9
  400c9b:	e9 50 ff ff ff       	jmp    400bf0 <.plt>

0000000000400ca0 <alarm@plt>:
  400ca0:	ff 25 c2 33 20 00    	jmp    *0x2033c2(%rip)        # 604068 <alarm@GLIBC_2.2.5>
  400ca6:	68 0a 00 00 00       	push   $0xa
  400cab:	e9 40 ff ff ff       	jmp    400bf0 <.plt>

0000000000400cb0 <close@plt>:
  400cb0:	ff 25 ba 33 20 00    	jmp    *0x2033ba(%rip)        # 604070 <close@GLIBC_2.2.5>
  400cb6:	68 0b 00 00 00       	push   $0xb
  400cbb:	e9 30 ff ff ff       	jmp    400bf0 <.plt>

0000000000400cc0 <read@plt>:
  400cc0:	ff 25 b2 33 20 00    	jmp    *0x2033b2(%rip)        # 604078 <read@GLIBC_2.2.5>
  400cc6:	68 0c 00 00 00       	push   $0xc
  400ccb:	e9 20 ff ff ff       	jmp    400bf0 <.plt>

0000000000400cd0 <__libc_start_main@plt>:
  400cd0:	ff 25 aa 33 20 00    	jmp    *0x2033aa(%rip)        # 604080 <__libc_start_main@GLIBC_2.2.5>
  400cd6:	68 0d 00 00 00       	push   $0xd
  400cdb:	e9 10 ff ff ff       	jmp    400bf0 <.plt>

0000000000400ce0 <signal@plt>:
  400ce0:	ff 25 a2 33 20 00    	jmp    *0x2033a2(%rip)        # 604088 <signal@GLIBC_2.2.5>
  400ce6:	68 0e 00 00 00       	push   $0xe
  400ceb:	e9 00 ff ff ff       	jmp    400bf0 <.plt>

0000000000400cf0 <gethostbyname@plt>:
  400cf0:	ff 25 9a 33 20 00    	jmp    *0x20339a(%rip)        # 604090 <gethostbyname@GLIBC_2.2.5>
  400cf6:	68 0f 00 00 00       	push   $0xf
  400cfb:	e9 f0 fe ff ff       	jmp    400bf0 <.plt>

0000000000400d00 <fprintf@plt>:
  400d00:	ff 25 92 33 20 00    	jmp    *0x203392(%rip)        # 604098 <fprintf@GLIBC_2.2.5>
  400d06:	68 10 00 00 00       	push   $0x10
  400d0b:	e9 e0 fe ff ff       	jmp    400bf0 <.plt>

0000000000400d10 <__gmon_start__@plt>:
  400d10:	ff 25 8a 33 20 00    	jmp    *0x20338a(%rip)        # 6040a0 <__gmon_start__>
  400d16:	68 11 00 00 00       	push   $0x11
  400d1b:	e9 d0 fe ff ff       	jmp    400bf0 <.plt>

0000000000400d20 <strtol@plt>:
  400d20:	ff 25 82 33 20 00    	jmp    *0x203382(%rip)        # 6040a8 <strtol@GLIBC_2.2.5>
  400d26:	68 12 00 00 00       	push   $0x12
  400d2b:	e9 c0 fe ff ff       	jmp    400bf0 <.plt>

0000000000400d30 <memcpy@plt>:
  400d30:	ff 25 7a 33 20 00    	jmp    *0x20337a(%rip)        # 6040b0 <memcpy@GLIBC_2.14>
  400d36:	68 13 00 00 00       	push   $0x13
  400d3b:	e9 b0 fe ff ff       	jmp    400bf0 <.plt>

0000000000400d40 <time@plt>:
  400d40:	ff 25 72 33 20 00    	jmp    *0x203372(%rip)        # 6040b8 <time@GLIBC_2.2.5>
  400d46:	68 14 00 00 00       	push   $0x14
  400d4b:	e9 a0 fe ff ff       	jmp    400bf0 <.plt>

0000000000400d50 <random@plt>:
  400d50:	ff 25 6a 33 20 00    	jmp    *0x20336a(%rip)        # 6040c0 <random@GLIBC_2.2.5>
  400d56:	68 15 00 00 00       	push   $0x15
  400d5b:	e9 90 fe ff ff       	jmp    400bf0 <.plt>

0000000000400d60 <_IO_getc@plt>:
  400d60:	ff 25 62 33 20 00    	jmp    *0x203362(%rip)        # 6040c8 <_IO_getc@GLIBC_2.2.5>
  400d66:	68 16 00 00 00       	push   $0x16
  400d6b:	e9 80 fe ff ff       	jmp    400bf0 <.plt>

0000000000400d70 <__isoc99_sscanf@plt>:
  400d70:	ff 25 5a 33 20 00    	jmp    *0x20335a(%rip)        # 6040d0 <__isoc99_sscanf@GLIBC_2.7>
  400d76:	68 17 00 00 00       	push   $0x17
  400d7b:	e9 70 fe ff ff       	jmp    400bf0 <.plt>

0000000000400d80 <munmap@plt>:
  400d80:	ff 25 52 33 20 00    	jmp    *0x203352(%rip)        # 6040d8 <munmap@GLIBC_2.2.5>
  400d86:	68 18 00 00 00       	push   $0x18
  400d8b:	e9 60 fe ff ff       	jmp    400bf0 <.plt>

0000000000400d90 <bcopy@plt>:
  400d90:	ff 25 4a 33 20 00    	jmp    *0x20334a(%rip)        # 6040e0 <bcopy@GLIBC_2.2.5>
  400d96:	68 19 00 00 00       	push   $0x19
  400d9b:	e9 50 fe ff ff       	jmp    400bf0 <.plt>

0000000000400da0 <fopen@plt>:
  400da0:	ff 25 42 33 20 00    	jmp    *0x203342(%rip)        # 6040e8 <fopen@GLIBC_2.2.5>
  400da6:	68 1a 00 00 00       	push   $0x1a
  400dab:	e9 40 fe ff ff       	jmp    400bf0 <.plt>

0000000000400db0 <getopt@plt>:
  400db0:	ff 25 3a 33 20 00    	jmp    *0x20333a(%rip)        # 6040f0 <getopt@GLIBC_2.2.5>
  400db6:	68 1b 00 00 00       	push   $0x1b
  400dbb:	e9 30 fe ff ff       	jmp    400bf0 <.plt>

0000000000400dc0 <strtoul@plt>:
  400dc0:	ff 25 32 33 20 00    	jmp    *0x203332(%rip)        # 6040f8 <strtoul@GLIBC_2.2.5>
  400dc6:	68 1c 00 00 00       	push   $0x1c
  400dcb:	e9 20 fe ff ff       	jmp    400bf0 <.plt>

0000000000400dd0 <gethostname@plt>:
  400dd0:	ff 25 2a 33 20 00    	jmp    *0x20332a(%rip)        # 604100 <gethostname@GLIBC_2.2.5>
  400dd6:	68 1d 00 00 00       	push   $0x1d
  400ddb:	e9 10 fe ff ff       	jmp    400bf0 <.plt>

0000000000400de0 <sprintf@plt>:
  400de0:	ff 25 22 33 20 00    	jmp    *0x203322(%rip)        # 604108 <sprintf@GLIBC_2.2.5>
  400de6:	68 1e 00 00 00       	push   $0x1e
  400deb:	e9 00 fe ff ff       	jmp    400bf0 <.plt>

0000000000400df0 <exit@plt>:
  400df0:	ff 25 1a 33 20 00    	jmp    *0x20331a(%rip)        # 604110 <exit@GLIBC_2.2.5>
  400df6:	68 1f 00 00 00       	push   $0x1f
  400dfb:	e9 f0 fd ff ff       	jmp    400bf0 <.plt>

0000000000400e00 <connect@plt>:
  400e00:	ff 25 12 33 20 00    	jmp    *0x203312(%rip)        # 604118 <connect@GLIBC_2.2.5>
  400e06:	68 20 00 00 00       	push   $0x20
  400e0b:	e9 e0 fd ff ff       	jmp    400bf0 <.plt>

0000000000400e10 <socket@plt>:
  400e10:	ff 25 0a 33 20 00    	jmp    *0x20330a(%rip)        # 604120 <socket@GLIBC_2.2.5>
  400e16:	68 21 00 00 00       	push   $0x21
  400e1b:	e9 d0 fd ff ff       	jmp    400bf0 <.plt>

Disassembly of section .text:

0000000000400e20 <_start>:
  400e20:	31 ed                	xor    %ebp,%ebp
  400e22:	49 89 d1             	mov    %rdx,%r9
  400e25:	5e                   	pop    %rsi
  400e26:	48 89 e2             	mov    %rsp,%rdx
  400e29:	48 83 e4 f0          	and    $0xfffffffffffffff0,%rsp
  400e2d:	50                   	push   %rax
  400e2e:	54                   	push   %rsp
  400e2f:	49 c7 c0 40 2b 40 00 	mov    $0x402b40,%r8
  400e36:	48 c7 c1 d0 2a 40 00 	mov    $0x402ad0,%rcx
  400e3d:	48 c7 c7 e0 10 40 00 	mov    $0x4010e0,%rdi
  400e44:	e8 87 fe ff ff       	call   400cd0 <__libc_start_main@plt>
  400e49:	f4                   	hlt    
  400e4a:	66 0f 1f 44 00 00    	nopw   0x0(%rax,%rax,1)

0000000000400e50 <deregister_tm_clones>:
  400e50:	b8 b7 44 60 00       	mov    $0x6044b7,%eax
  400e55:	55                   	push   %rbp
  400e56:	48 2d b0 44 60 00    	sub    $0x6044b0,%rax
  400e5c:	48 83 f8 0e          	cmp    $0xe,%rax
  400e60:	48 89 e5             	mov    %rsp,%rbp
  400e63:	77 02                	ja     400e67 <deregister_tm_clones+0x17>
  400e65:	5d                   	pop    %rbp
  400e66:	c3                   	ret    
  400e67:	b8 00 00 00 00       	mov    $0x0,%eax
  400e6c:	48 85 c0             	test   %rax,%rax
  400e6f:	74 f4                	je     400e65 <deregister_tm_clones+0x15>
  400e71:	5d                   	pop    %rbp
  400e72:	bf b0 44 60 00       	mov    $0x6044b0,%edi
  400e77:	ff e0                	jmp    *%rax
  400e79:	0f 1f 80 00 00 00 00 	nopl   0x0(%rax)

0000000000400e80 <register_tm_clones>:
  400e80:	b8 b0 44 60 00       	mov    $0x6044b0,%eax
  400e85:	55                   	push   %rbp
  400e86:	48 2d b0 44 60 00    	sub    $0x6044b0,%rax
  400e8c:	48 c1 f8 03          	sar    $0x3,%rax
  400e90:	48 89 e5             	mov    %rsp,%rbp
  400e93:	48 89 c2             	mov    %rax,%rdx
  400e96:	48 c1 ea 3f          	shr    $0x3f,%rdx
  400e9a:	48 01 d0             	add    %rdx,%rax
  400e9d:	48 d1 f8             	sar    %rax
  400ea0:	75 02                	jne    400ea4 <register_tm_clones+0x24>
  400ea2:	5d                   	pop    %rbp
  400ea3:	c3                   	ret    
  400ea4:	ba 00 00 00 00       	mov    $0x0,%edx
  400ea9:	48 85 d2             	test   %rdx,%rdx
  400eac:	74 f4                	je     400ea2 <register_tm_clones+0x22>
  400eae:	5d                   	pop    %rbp
  400eaf:	48 89 c6             	mov    %rax,%rsi
  400eb2:	bf b0 44 60 00       	mov    $0x6044b0,%edi
  400eb7:	ff e2                	jmp    *%rdx
  400eb9:	0f 1f 80 00 00 00 00 	nopl   0x0(%rax)

0000000000400ec0 <__do_global_dtors_aux>:
  400ec0:	80 3d 11 36 20 00 00 	cmpb   $0x0,0x203611(%rip)        # 6044d8 <completed.6355>
  400ec7:	75 11                	jne    400eda <__do_global_dtors_aux+0x1a>
  400ec9:	55                   	push   %rbp
  400eca:	48 89 e5             	mov    %rsp,%rbp
  400ecd:	e8 7e ff ff ff       	call   400e50 <deregister_tm_clones>
  400ed2:	5d                   	pop    %rbp
  400ed3:	c6 05 fe 35 20 00 01 	movb   $0x1,0x2035fe(%rip)        # 6044d8 <completed.6355>
  400eda:	f3 c3                	repz ret 
  400edc:	0f 1f 40 00          	nopl   0x0(%rax)

0000000000400ee0 <frame_dummy>:
  400ee0:	48 83 3d 38 2f 20 00 	cmpq   $0x0,0x202f38(%rip)        # 603e20 <__JCR_END__>
  400ee7:	00 
  400ee8:	74 1e                	je     400f08 <frame_dummy+0x28>
  400eea:	b8 00 00 00 00       	mov    $0x0,%eax
  400eef:	48 85 c0             	test   %rax,%rax
  400ef2:	74 14                	je     400f08 <frame_dummy+0x28>
  400ef4:	55                   	push   %rbp
  400ef5:	bf 20 3e 60 00       	mov    $0x603e20,%edi
  400efa:	48 89 e5             	mov    %rsp,%rbp
  400efd:	ff d0                	call   *%rax
  400eff:	5d                   	pop    %rbp
  400f00:	e9 7b ff ff ff       	jmp    400e80 <register_tm_clones>
  400f05:	0f 1f 00             	nopl   (%rax)
  400f08:	e9 73 ff ff ff       	jmp    400e80 <register_tm_clones>
  400f0d:	0f 1f 00             	nopl   (%rax)

0000000000400f10 <usage>:
  400f10:	48 83 ec 08          	sub    $0x8,%rsp
  400f14:	48 89 fe             	mov    %rdi,%rsi
  400f17:	83 3d ea 35 20 00 00 	cmpl   $0x0,0x2035ea(%rip)        # 604508 <is_checker>
  400f1e:	74 39                	je     400f59 <usage+0x49>
  400f20:	bf 60 2b 40 00       	mov    $0x402b60,%edi
  400f25:	b8 00 00 00 00       	mov    $0x0,%eax
  400f2a:	e8 51 fd ff ff       	call   400c80 <printf@plt>
  400f2f:	bf 98 2b 40 00       	mov    $0x402b98,%edi
  400f34:	e8 17 fd ff ff       	call   400c50 <puts@plt>
  400f39:	bf 10 2d 40 00       	mov    $0x402d10,%edi
  400f3e:	e8 0d fd ff ff       	call   400c50 <puts@plt>
  400f43:	bf c0 2b 40 00       	mov    $0x402bc0,%edi
  400f48:	e8 03 fd ff ff       	call   400c50 <puts@plt>
  400f4d:	bf 2a 2d 40 00       	mov    $0x402d2a,%edi
  400f52:	e8 f9 fc ff ff       	call   400c50 <puts@plt>
  400f57:	eb 2d                	jmp    400f86 <usage+0x76>
  400f59:	bf 46 2d 40 00       	mov    $0x402d46,%edi
  400f5e:	b8 00 00 00 00       	mov    $0x0,%eax
  400f63:	e8 18 fd ff ff       	call   400c80 <printf@plt>
  400f68:	bf e8 2b 40 00       	mov    $0x402be8,%edi
  400f6d:	e8 de fc ff ff       	call   400c50 <puts@plt>
  400f72:	bf 10 2c 40 00       	mov    $0x402c10,%edi
  400f77:	e8 d4 fc ff ff       	call   400c50 <puts@plt>
  400f7c:	bf 64 2d 40 00       	mov    $0x402d64,%edi
  400f81:	e8 ca fc ff ff       	call   400c50 <puts@plt>
  400f86:	bf 00 00 00 00       	mov    $0x0,%edi
  400f8b:	e8 60 fe ff ff       	call   400df0 <exit@plt>

0000000000400f90 <initialize_target>:
  400f90:	55                   	push   %rbp
  400f91:	53                   	push   %rbx
  400f92:	48 81 ec 08 21 00 00 	sub    $0x2108,%rsp
  400f99:	89 f5                	mov    %esi,%ebp
  400f9b:	89 3d 57 35 20 00    	mov    %edi,0x203557(%rip)        # 6044f8 <check_level>
  400fa1:	8b 3d c1 31 20 00    	mov    0x2031c1(%rip),%edi        # 604168 <target_id>
  400fa7:	e8 f7 1a 00 00       	call   402aa3 <gencookie>
  400fac:	89 05 52 35 20 00    	mov    %eax,0x203552(%rip)        # 604504 <cookie>
  400fb2:	89 c7                	mov    %eax,%edi
  400fb4:	e8 ea 1a 00 00       	call   402aa3 <gencookie>
  400fb9:	89 05 41 35 20 00    	mov    %eax,0x203541(%rip)        # 604500 <authkey>
  400fbf:	8b 05 a3 31 20 00    	mov    0x2031a3(%rip),%eax        # 604168 <target_id>
  400fc5:	8d 78 01             	lea    0x1(%rax),%edi
  400fc8:	e8 53 fc ff ff       	call   400c20 <srandom@plt>
  400fcd:	e8 7e fd ff ff       	call   400d50 <random@plt>
  400fd2:	89 c7                	mov    %eax,%edi
  400fd4:	e8 ca 02 00 00       	call   4012a3 <scramble>
  400fd9:	89 c3                	mov    %eax,%ebx
  400fdb:	85 ed                	test   %ebp,%ebp
  400fdd:	74 18                	je     400ff7 <initialize_target+0x67>
  400fdf:	bf 00 00 00 00       	mov    $0x0,%edi
  400fe4:	e8 57 fd ff ff       	call   400d40 <time@plt>
  400fe9:	89 c7                	mov    %eax,%edi
  400feb:	e8 30 fc ff ff       	call   400c20 <srandom@plt>
  400ff0:	e8 5b fd ff ff       	call   400d50 <random@plt>
  400ff5:	eb 05                	jmp    400ffc <initialize_target+0x6c>
  400ff7:	b8 00 00 00 00       	mov    $0x0,%eax
  400ffc:	01 c3                	add    %eax,%ebx
  400ffe:	0f b7 db             	movzwl %bx,%ebx
  401001:	8d 04 dd 00 01 00 00 	lea    0x100(,%rbx,8),%eax
  401008:	89 c0                	mov    %eax,%eax
  40100a:	48 89 05 8f 34 20 00 	mov    %rax,0x20348f(%rip)        # 6044a0 <buf_offset>
  401011:	c6 05 10 41 20 00 63 	movb   $0x63,0x204110(%rip)        # 605128 <target_prefix>
  401018:	83 3d 89 34 20 00 00 	cmpl   $0x0,0x203489(%rip)        # 6044a8 <notify>
  40101f:	0f 84 b1 00 00 00    	je     4010d6 <initialize_target+0x146>
  401025:	83 3d dc 34 20 00 00 	cmpl   $0x0,0x2034dc(%rip)        # 604508 <is_checker>
  40102c:	0f 85 a4 00 00 00    	jne    4010d6 <initialize_target+0x146>
  401032:	be 00 01 00 00       	mov    $0x100,%esi
  401037:	48 89 e7             	mov    %rsp,%rdi
  40103a:	e8 91 fd ff ff       	call   400dd0 <gethostname@plt>
  40103f:	85 c0                	test   %eax,%eax
  401041:	74 25                	je     401068 <initialize_target+0xd8>
  401043:	bf 40 2c 40 00       	mov    $0x402c40,%edi
  401048:	e8 03 fc ff ff       	call   400c50 <puts@plt>
  40104d:	bf 08 00 00 00       	mov    $0x8,%edi
  401052:	e8 99 fd ff ff       	call   400df0 <exit@plt>
  401057:	48 89 e6             	mov    %rsp,%rsi
  40105a:	e8 a1 fb ff ff       	call   400c00 <strcasecmp@plt>
  40105f:	85 c0                	test   %eax,%eax
  401061:	74 21                	je     401084 <initialize_target+0xf4>
  401063:	83 c3 01             	add    $0x1,%ebx
  401066:	eb 05                	jmp    40106d <initialize_target+0xdd>
  401068:	bb 00 00 00 00       	mov    $0x0,%ebx
  40106d:	48 63 c3             	movslq %ebx,%rax
  401070:	48 8b 3c c5 80 41 60 	mov    0x604180(,%rax,8),%rdi
  401077:	00 
  401078:	48 85 ff             	test   %rdi,%rdi
  40107b:	75 da                	jne    401057 <initialize_target+0xc7>
  40107d:	b8 00 00 00 00       	mov    $0x0,%eax
  401082:	eb 05                	jmp    401089 <initialize_target+0xf9>
  401084:	b8 01 00 00 00       	mov    $0x1,%eax
  401089:	85 c0                	test   %eax,%eax
  40108b:	75 17                	jne    4010a4 <initialize_target+0x114>
  40108d:	48 89 e6             	mov    %rsp,%rsi
  401090:	bf 78 2c 40 00       	mov    $0x402c78,%edi
  401095:	e8 e6 fb ff ff       	call   400c80 <printf@plt>
  40109a:	bf 08 00 00 00       	mov    $0x8,%edi
  40109f:	e8 4c fd ff ff       	call   400df0 <exit@plt>
  4010a4:	48 8d bc 24 00 01 00 	lea    0x100(%rsp),%rdi
  4010ab:	00 
  4010ac:	e8 89 17 00 00       	call   40283a <init_driver>
  4010b1:	85 c0                	test   %eax,%eax
  4010b3:	79 21                	jns    4010d6 <initialize_target+0x146>
  4010b5:	48 8d b4 24 00 01 00 	lea    0x100(%rsp),%rsi
  4010bc:	00 
  4010bd:	bf b8 2c 40 00       	mov    $0x402cb8,%edi
  4010c2:	b8 00 00 00 00       	mov    $0x0,%eax
  4010c7:	e8 b4 fb ff ff       	call   400c80 <printf@plt>
  4010cc:	bf 08 00 00 00       	mov    $0x8,%edi
  4010d1:	e8 1a fd ff ff       	call   400df0 <exit@plt>
  4010d6:	48 81 c4 08 21 00 00 	add    $0x2108,%rsp
  4010dd:	5b                   	pop    %rbx
  4010de:	5d                   	pop    %rbp
  4010df:	c3                   	ret    

00000000004010e0 <main>:
  4010e0:	41 56                	push   %r14
  4010e2:	41 55                	push   %r13
  4010e4:	41 54                	push   %r12
  4010e6:	55                   	push   %rbp
  4010e7:	53                   	push   %rbx
  4010e8:	41 89 fc             	mov    %edi,%r12d
  4010eb:	48 89 f3             	mov    %rsi,%rbx
  4010ee:	be 61 1c 40 00       	mov    $0x401c61,%esi
  4010f3:	bf 0b 00 00 00       	mov    $0xb,%edi
  4010f8:	e8 e3 fb ff ff       	call   400ce0 <signal@plt>
  4010fd:	be 13 1c 40 00       	mov    $0x401c13,%esi
  401102:	bf 07 00 00 00       	mov    $0x7,%edi
  401107:	e8 d4 fb ff ff       	call   400ce0 <signal@plt>
  40110c:	be af 1c 40 00       	mov    $0x401caf,%esi
  401111:	bf 04 00 00 00       	mov    $0x4,%edi
  401116:	e8 c5 fb ff ff       	call   400ce0 <signal@plt>
  40111b:	83 3d e6 33 20 00 00 	cmpl   $0x0,0x2033e6(%rip)        # 604508 <is_checker>
  401122:	74 20                	je     401144 <main+0x64>
  401124:	be fd 1c 40 00       	mov    $0x401cfd,%esi
  401129:	bf 0e 00 00 00       	mov    $0xe,%edi
  40112e:	e8 ad fb ff ff       	call   400ce0 <signal@plt>
  401133:	bf 05 00 00 00       	mov    $0x5,%edi
  401138:	e8 63 fb ff ff       	call   400ca0 <alarm@plt>
  40113d:	bd 82 2d 40 00       	mov    $0x402d82,%ebp
  401142:	eb 05                	jmp    401149 <main+0x69>
  401144:	bd 7d 2d 40 00       	mov    $0x402d7d,%ebp
  401149:	48 8b 05 70 33 20 00 	mov    0x203370(%rip),%rax        # 6044c0 <stdin@GLIBC_2.2.5>
  401150:	48 89 05 99 33 20 00 	mov    %rax,0x203399(%rip)        # 6044f0 <infile>
  401157:	41 bd 00 00 00 00    	mov    $0x0,%r13d
  40115d:	41 be 00 00 00 00    	mov    $0x0,%r14d
  401163:	e9 b9 00 00 00       	jmp    401221 <main+0x141>
  401168:	83 e8 61             	sub    $0x61,%eax
  40116b:	3c 10                	cmp    $0x10,%al
  40116d:	0f 87 93 00 00 00    	ja     401206 <main+0x126>
  401173:	0f b6 c0             	movzbl %al,%eax
  401176:	ff 24 c5 c8 2d 40 00 	jmp    *0x402dc8(,%rax,8)
  40117d:	48 8b 3b             	mov    (%rbx),%rdi
  401180:	e8 8b fd ff ff       	call   400f10 <usage>
  401185:	be 86 2e 40 00       	mov    $0x402e86,%esi
  40118a:	48 8b 3d 37 33 20 00 	mov    0x203337(%rip),%rdi        # 6044c8 <optarg@GLIBC_2.2.5>
  401191:	e8 0a fc ff ff       	call   400da0 <fopen@plt>
  401196:	48 89 05 53 33 20 00 	mov    %rax,0x203353(%rip)        # 6044f0 <infile>
  40119d:	48 85 c0             	test   %rax,%rax
  4011a0:	75 7f                	jne    401221 <main+0x141>
  4011a2:	48 8b 15 1f 33 20 00 	mov    0x20331f(%rip),%rdx        # 6044c8 <optarg@GLIBC_2.2.5>
  4011a9:	be 8a 2d 40 00       	mov    $0x402d8a,%esi
  4011ae:	48 8b 3d 1b 33 20 00 	mov    0x20331b(%rip),%rdi        # 6044d0 <stderr@GLIBC_2.2.5>
  4011b5:	e8 46 fb ff ff       	call   400d00 <fprintf@plt>
  4011ba:	b8 01 00 00 00       	mov    $0x1,%eax
  4011bf:	e9 d6 00 00 00       	jmp    40129a <main+0x1ba>
  4011c4:	ba 10 00 00 00       	mov    $0x10,%edx
  4011c9:	be 00 00 00 00       	mov    $0x0,%esi
  4011ce:	48 8b 3d f3 32 20 00 	mov    0x2032f3(%rip),%rdi        # 6044c8 <optarg@GLIBC_2.2.5>
  4011d5:	e8 e6 fb ff ff       	call   400dc0 <strtoul@plt>
  4011da:	41 89 c6             	mov    %eax,%r14d
  4011dd:	eb 42                	jmp    401221 <main+0x141>
  4011df:	ba 0a 00 00 00       	mov    $0xa,%edx
  4011e4:	be 00 00 00 00       	mov    $0x0,%esi
  4011e9:	48 8b 3d d8 32 20 00 	mov    0x2032d8(%rip),%rdi        # 6044c8 <optarg@GLIBC_2.2.5>
  4011f0:	e8 2b fb ff ff       	call   400d20 <strtol@plt>
  4011f5:	41 89 c5             	mov    %eax,%r13d
  4011f8:	eb 27                	jmp    401221 <main+0x141>
  4011fa:	c7 05 a4 32 20 00 00 	movl   $0x0,0x2032a4(%rip)        # 6044a8 <notify>
  401201:	00 00 00 
  401204:	eb 1b                	jmp    401221 <main+0x141>
  401206:	40 0f be f6          	movsbl %sil,%esi
  40120a:	bf a7 2d 40 00       	mov    $0x402da7,%edi
  40120f:	b8 00 00 00 00       	mov    $0x0,%eax
  401214:	e8 67 fa ff ff       	call   400c80 <printf@plt>
  401219:	48 8b 3b             	mov    (%rbx),%rdi
  40121c:	e8 ef fc ff ff       	call   400f10 <usage>
  401221:	48 89 ea             	mov    %rbp,%rdx
  401224:	48 89 de             	mov    %rbx,%rsi
  401227:	44 89 e7             	mov    %r12d,%edi
  40122a:	e8 81 fb ff ff       	call   400db0 <getopt@plt>
  40122f:	89 c6                	mov    %eax,%esi
  401231:	3c ff                	cmp    $0xff,%al
  401233:	0f 85 2f ff ff ff    	jne    401168 <main+0x88>
  401239:	be 00 00 00 00       	mov    $0x0,%esi
  40123e:	44 89 ef             	mov    %r13d,%edi
  401241:	e8 4a fd ff ff       	call   400f90 <initialize_target>
  401246:	83 3d bb 32 20 00 00 	cmpl   $0x0,0x2032bb(%rip)        # 604508 <is_checker>
  40124d:	74 25                	je     401274 <main+0x194>
  40124f:	44 3b 35 aa 32 20 00 	cmp    0x2032aa(%rip),%r14d        # 604500 <authkey>
  401256:	74 1c                	je     401274 <main+0x194>
  401258:	44 89 f6             	mov    %r14d,%esi
  40125b:	bf e0 2c 40 00       	mov    $0x402ce0,%edi
  401260:	b8 00 00 00 00       	mov    $0x0,%eax
  401265:	e8 16 fa ff ff       	call   400c80 <printf@plt>
  40126a:	b8 00 00 00 00       	mov    $0x0,%eax
  40126f:	e8 a7 06 00 00       	call   40191b <check_fail>
  401274:	8b 35 8a 32 20 00    	mov    0x20328a(%rip),%esi        # 604504 <cookie>
  40127a:	bf ba 2d 40 00       	mov    $0x402dba,%edi
  40127f:	b8 00 00 00 00       	mov    $0x0,%eax
  401284:	e8 f7 f9 ff ff       	call   400c80 <printf@plt>
  401289:	48 8b 3d 10 32 20 00 	mov    0x203210(%rip),%rdi        # 6044a0 <buf_offset>
  401290:	e8 37 0b 00 00       	call   401dcc <stable_launch>
  401295:	b8 00 00 00 00       	mov    $0x0,%eax
  40129a:	5b                   	pop    %rbx
  40129b:	5d                   	pop    %rbp
  40129c:	41 5c                	pop    %r12
  40129e:	41 5d                	pop    %r13
  4012a0:	41 5e                	pop    %r14
  4012a2:	c3                   	ret    

00000000004012a3 <scramble>:
  4012a3:	b8 00 00 00 00       	mov    $0x0,%eax
  4012a8:	eb 11                	jmp    4012bb <scramble+0x18>
  4012aa:	69 c8 17 49 00 00    	imul   $0x4917,%eax,%ecx
  4012b0:	01 f9                	add    %edi,%ecx
  4012b2:	89 c2                	mov    %eax,%edx
  4012b4:	89 4c 94 d0          	mov    %ecx,-0x30(%rsp,%rdx,4)
  4012b8:	83 c0 01             	add    $0x1,%eax
  4012bb:	83 f8 09             	cmp    $0x9,%eax
  4012be:	76 ea                	jbe    4012aa <scramble+0x7>
  4012c0:	8b 44 24 e8          	mov    -0x18(%rsp),%eax
  4012c4:	69 c0 0c 85 00 00    	imul   $0x850c,%eax,%eax
  4012ca:	89 44 24 e8          	mov    %eax,-0x18(%rsp)
  4012ce:	8b 44 24 dc          	mov    -0x24(%rsp),%eax
  4012d2:	69 c0 54 90 00 00    	imul   $0x9054,%eax,%eax
  4012d8:	89 44 24 dc          	mov    %eax,-0x24(%rsp)
  4012dc:	8b 44 24 f0          	mov    -0x10(%rsp),%eax
  4012e0:	69 c0 46 c3 00 00    	imul   $0xc346,%eax,%eax
  4012e6:	89 44 24 f0          	mov    %eax,-0x10(%rsp)
  4012ea:	8b 44 24 f4          	mov    -0xc(%rsp),%eax
  4012ee:	69 c0 94 9b 00 00    	imul   $0x9b94,%eax,%eax
  4012f4:	89 44 24 f4          	mov    %eax,-0xc(%rsp)
  4012f8:	8b 44 24 e8          	mov    -0x18(%rsp),%eax
  4012fc:	69 c0 e7 90 00 00    	imul   $0x90e7,%eax,%eax
  401302:	89 44 24 e8          	mov    %eax,-0x18(%rsp)
  401306:	8b 44 24 dc          	mov    -0x24(%rsp),%eax
  40130a:	69 c0 ec de 00 00    	imul   $0xdeec,%eax,%eax
  401310:	89 44 24 dc          	mov    %eax,-0x24(%rsp)
  401314:	8b 44 24 d8          	mov    -0x28(%rsp),%eax
  401318:	69 c0 f5 7f 00 00    	imul   $0x7ff5,%eax,%eax
  40131e:	89 44 24 d8          	mov    %eax,-0x28(%rsp)
  401322:	8b 44 24 d0          	mov    -0x30(%rsp),%eax
  401326:	69 c0 16 1c 00 00    	imul   $0x1c16,%eax,%eax
  40132c:	89 44 24 d0          	mov    %eax,-0x30(%rsp)
  401330:	8b 44 24 dc          	mov    -0x24(%rsp),%eax
  401334:	69 c0 51 50 00 00    	imul   $0x5051,%eax,%eax
  40133a:	89 44 24 dc          	mov    %eax,-0x24(%rsp)
  40133e:	8b 44 24 dc          	mov    -0x24(%rsp),%eax
  401342:	69 c0 39 82 00 00    	imul   $0x8239,%eax,%eax
  401348:	89 44 24 dc          	mov    %eax,-0x24(%rsp)
  40134c:	8b 44 24 ec          	mov    -0x14(%rsp),%eax
  401350:	69 c0 8b cf 00 00    	imul   $0xcf8b,%eax,%eax
  401356:	89 44 24 ec          	mov    %eax,-0x14(%rsp)
  40135a:	8b 44 24 dc          	mov    -0x24(%rsp),%eax
  40135e:	69 c0 0d 34 00 00    	imul   $0x340d,%eax,%eax
  401364:	89 44 24 dc          	mov    %eax,-0x24(%rsp)
  401368:	8b 44 24 f4          	mov    -0xc(%rsp),%eax
  40136c:	69 c0 82 5d 00 00    	imul   $0x5d82,%eax,%eax
  401372:	89 44 24 f4          	mov    %eax,-0xc(%rsp)
  401376:	8b 44 24 f4          	mov    -0xc(%rsp),%eax
  40137a:	69 c0 1a ca 00 00    	imul   $0xca1a,%eax,%eax
  401380:	89 44 24 f4          	mov    %eax,-0xc(%rsp)
  401384:	8b 44 24 dc          	mov    -0x24(%rsp),%eax
  401388:	69 c0 a0 06 00 00    	imul   $0x6a0,%eax,%eax
  40138e:	89 44 24 dc          	mov    %eax,-0x24(%rsp)
  401392:	8b 44 24 d8          	mov    -0x28(%rsp),%eax
  401396:	69 c0 ba 83 00 00    	imul   $0x83ba,%eax,%eax
  40139c:	89 44 24 d8          	mov    %eax,-0x28(%rsp)
  4013a0:	8b 44 24 f0          	mov    -0x10(%rsp),%eax
  4013a4:	69 c0 1d 21 00 00    	imul   $0x211d,%eax,%eax
  4013aa:	89 44 24 f0          	mov    %eax,-0x10(%rsp)
  4013ae:	8b 44 24 dc          	mov    -0x24(%rsp),%eax
  4013b2:	69 c0 38 2b 00 00    	imul   $0x2b38,%eax,%eax
  4013b8:	89 44 24 dc          	mov    %eax,-0x24(%rsp)
  4013bc:	8b 44 24 e8          	mov    -0x18(%rsp),%eax
  4013c0:	69 c0 fe db 00 00    	imul   $0xdbfe,%eax,%eax
  4013c6:	89 44 24 e8          	mov    %eax,-0x18(%rsp)
  4013ca:	8b 44 24 e4          	mov    -0x1c(%rsp),%eax
  4013ce:	69 c0 d5 13 00 00    	imul   $0x13d5,%eax,%eax
  4013d4:	89 44 24 e4          	mov    %eax,-0x1c(%rsp)
  4013d8:	8b 44 24 ec          	mov    -0x14(%rsp),%eax
  4013dc:	69 c0 d4 2c 00 00    	imul   $0x2cd4,%eax,%eax
  4013e2:	89 44 24 ec          	mov    %eax,-0x14(%rsp)
  4013e6:	8b 44 24 e0          	mov    -0x20(%rsp),%eax
  4013ea:	69 c0 5b 5b 00 00    	imul   $0x5b5b,%eax,%eax
  4013f0:	89 44 24 e0          	mov    %eax,-0x20(%rsp)
  4013f4:	8b 44 24 e4          	mov    -0x1c(%rsp),%eax
  4013f8:	69 c0 45 22 00 00    	imul   $0x2245,%eax,%eax
  4013fe:	89 44 24 e4          	mov    %eax,-0x1c(%rsp)
  401402:	8b 44 24 dc          	mov    -0x24(%rsp),%eax
  401406:	69 c0 66 a9 00 00    	imul   $0xa966,%eax,%eax
  40140c:	89 44 24 dc          	mov    %eax,-0x24(%rsp)
  401410:	8b 44 24 e4          	mov    -0x1c(%rsp),%eax
  401414:	69 c0 c2 3a 00 00    	imul   $0x3ac2,%eax,%eax
  40141a:	89 44 24 e4          	mov    %eax,-0x1c(%rsp)
  40141e:	8b 44 24 d4          	mov    -0x2c(%rsp),%eax
  401422:	69 c0 42 7c 00 00    	imul   $0x7c42,%eax,%eax
  401428:	89 44 24 d4          	mov    %eax,-0x2c(%rsp)
  40142c:	8b 44 24 dc          	mov    -0x24(%rsp),%eax
  401430:	69 c0 0c 20 00 00    	imul   $0x200c,%eax,%eax
  401436:	89 44 24 dc          	mov    %eax,-0x24(%rsp)
  40143a:	8b 44 24 f0          	mov    -0x10(%rsp),%eax
  40143e:	69 c0 d9 73 00 00    	imul   $0x73d9,%eax,%eax
  401444:	89 44 24 f0          	mov    %eax,-0x10(%rsp)
  401448:	8b 44 24 e4          	mov    -0x1c(%rsp),%eax
  40144c:	69 c0 1a 8b 00 00    	imul   $0x8b1a,%eax,%eax
  401452:	89 44 24 e4          	mov    %eax,-0x1c(%rsp)
  401456:	8b 44 24 dc          	mov    -0x24(%rsp),%eax
  40145a:	69 c0 31 b8 00 00    	imul   $0xb831,%eax,%eax
  401460:	89 44 24 dc          	mov    %eax,-0x24(%rsp)
  401464:	8b 44 24 e4          	mov    -0x1c(%rsp),%eax
  401468:	69 c0 fc a8 00 00    	imul   $0xa8fc,%eax,%eax
  40146e:	89 44 24 e4          	mov    %eax,-0x1c(%rsp)
  401472:	8b 44 24 f4          	mov    -0xc(%rsp),%eax
  401476:	69 c0 67 1d 00 00    	imul   $0x1d67,%eax,%eax
  40147c:	89 44 24 f4          	mov    %eax,-0xc(%rsp)
  401480:	8b 44 24 dc          	mov    -0x24(%rsp),%eax
  401484:	69 c0 f9 4f 00 00    	imul   $0x4ff9,%eax,%eax
  40148a:	89 44 24 dc          	mov    %eax,-0x24(%rsp)
  40148e:	8b 44 24 e0          	mov    -0x20(%rsp),%eax
  401492:	69 c0 7c ae 00 00    	imul   $0xae7c,%eax,%eax
  401498:	89 44 24 e0          	mov    %eax,-0x20(%rsp)
  40149c:	8b 44 24 ec          	mov    -0x14(%rsp),%eax
  4014a0:	69 c0 6b 0f 00 00    	imul   $0xf6b,%eax,%eax
  4014a6:	89 44 24 ec          	mov    %eax,-0x14(%rsp)
  4014aa:	8b 44 24 e0          	mov    -0x20(%rsp),%eax
  4014ae:	69 c0 dd 98 00 00    	imul   $0x98dd,%eax,%eax
  4014b4:	89 44 24 e0          	mov    %eax,-0x20(%rsp)
  4014b8:	8b 44 24 d0          	mov    -0x30(%rsp),%eax
  4014bc:	69 c0 13 b5 00 00    	imul   $0xb513,%eax,%eax
  4014c2:	89 44 24 d0          	mov    %eax,-0x30(%rsp)
  4014c6:	8b 44 24 f0          	mov    -0x10(%rsp),%eax
  4014ca:	69 c0 0a e9 00 00    	imul   $0xe90a,%eax,%eax
  4014d0:	89 44 24 f0          	mov    %eax,-0x10(%rsp)
  4014d4:	8b 44 24 d8          	mov    -0x28(%rsp),%eax
  4014d8:	69 c0 aa 6b 00 00    	imul   $0x6baa,%eax,%eax
  4014de:	89 44 24 d8          	mov    %eax,-0x28(%rsp)
  4014e2:	8b 44 24 e8          	mov    -0x18(%rsp),%eax
  4014e6:	69 c0 ef 49 00 00    	imul   $0x49ef,%eax,%eax
  4014ec:	89 44 24 e8          	mov    %eax,-0x18(%rsp)
  4014f0:	8b 44 24 ec          	mov    -0x14(%rsp),%eax
  4014f4:	69 c0 10 be 00 00    	imul   $0xbe10,%eax,%eax
  4014fa:	89 44 24 ec          	mov    %eax,-0x14(%rsp)
  4014fe:	8b 44 24 e0          	mov    -0x20(%rsp),%eax
  401502:	69 c0 ba b0 00 00    	imul   $0xb0ba,%eax,%eax
  401508:	89 44 24 e0          	mov    %eax,-0x20(%rsp)
  40150c:	8b 44 24 ec          	mov    -0x14(%rsp),%eax
  401510:	69 c0 81 76 00 00    	imul   $0x7681,%eax,%eax
  401516:	89 44 24 ec          	mov    %eax,-0x14(%rsp)
  40151a:	8b 44 24 ec          	mov    -0x14(%rsp),%eax
  40151e:	69 c0 ab 5b 00 00    	imul   $0x5bab,%eax,%eax
  401524:	89 44 24 ec          	mov    %eax,-0x14(%rsp)
  401528:	8b 44 24 e0          	mov    -0x20(%rsp),%eax
  40152c:	69 c0 86 62 00 00    	imul   $0x6286,%eax,%eax
  401532:	89 44 24 e0          	mov    %eax,-0x20(%rsp)
  401536:	8b 44 24 e0          	mov    -0x20(%rsp),%eax
  40153a:	69 c0 56 93 00 00    	imul   $0x9356,%eax,%eax
  401540:	89 44 24 e0          	mov    %eax,-0x20(%rsp)
  401544:	8b 44 24 f0          	mov    -0x10(%rsp),%eax
  401548:	69 c0 c8 4f 00 00    	imul   $0x4fc8,%eax,%eax
  40154e:	89 44 24 f0          	mov    %eax,-0x10(%rsp)
  401552:	8b 44 24 e4          	mov    -0x1c(%rsp),%eax
  401556:	69 c0 9b d5 00 00    	imul   $0xd59b,%eax,%eax
  40155c:	89 44 24 e4          	mov    %eax,-0x1c(%rsp)
  401560:	8b 44 24 ec          	mov    -0x14(%rsp),%eax
  401564:	69 c0 5d f9 00 00    	imul   $0xf95d,%eax,%eax
  40156a:	89 44 24 ec          	mov    %eax,-0x14(%rsp)
  40156e:	8b 44 24 e4          	mov    -0x1c(%rsp),%eax
  401572:	69 c0 b9 cb 00 00    	imul   $0xcbb9,%eax,%eax
  401578:	89 44 24 e4          	mov    %eax,-0x1c(%rsp)
  40157c:	8b 44 24 d4          	mov    -0x2c(%rsp),%eax
  401580:	69 c0 69 46 00 00    	imul   $0x4669,%eax,%eax
  401586:	89 44 24 d4          	mov    %eax,-0x2c(%rsp)
  40158a:	8b 44 24 e0          	mov    -0x20(%rsp),%eax
  40158e:	69 c0 09 45 00 00    	imul   $0x4509,%eax,%eax
  401594:	89 44 24 e0          	mov    %eax,-0x20(%rsp)
  401598:	8b 44 24 f4          	mov    -0xc(%rsp),%eax
  40159c:	69 c0 cf 58 00 00    	imul   $0x58cf,%eax,%eax
  4015a2:	89 44 24 f4          	mov    %eax,-0xc(%rsp)
  4015a6:	8b 44 24 f4          	mov    -0xc(%rsp),%eax
  4015aa:	69 c0 d4 d2 00 00    	imul   $0xd2d4,%eax,%eax
  4015b0:	89 44 24 f4          	mov    %eax,-0xc(%rsp)
  4015b4:	8b 44 24 e8          	mov    -0x18(%rsp),%eax
  4015b8:	69 c0 83 c0 00 00    	imul   $0xc083,%eax,%eax
  4015be:	89 44 24 e8          	mov    %eax,-0x18(%rsp)
  4015c2:	8b 44 24 dc          	mov    -0x24(%rsp),%eax
  4015c6:	69 c0 e6 6a 00 00    	imul   $0x6ae6,%eax,%eax
  4015cc:	89 44 24 dc          	mov    %eax,-0x24(%rsp)
  4015d0:	8b 44 24 f0          	mov    -0x10(%rsp),%eax
  4015d4:	69 c0 f5 e2 00 00    	imul   $0xe2f5,%eax,%eax
  4015da:	89 44 24 f0          	mov    %eax,-0x10(%rsp)
  4015de:	8b 44 24 f0          	mov    -0x10(%rsp),%eax
  4015e2:	69 c0 b0 5c 00 00    	imul   $0x5cb0,%eax,%eax
  4015e8:	89 44 24 f0          	mov    %eax,-0x10(%rsp)
  4015ec:	8b 44 24 dc          	mov    -0x24(%rsp),%eax
  4015f0:	69 c0 33 40 00 00    	imul   $0x4033,%eax,%eax
  4015f6:	89 44 24 dc          	mov    %eax,-0x24(%rsp)
  4015fa:	8b 44 24 d4          	mov    -0x2c(%rsp),%eax
  4015fe:	69 c0 12 5b 00 00    	imul   $0x5b12,%eax,%eax
  401604:	89 44 24 d4          	mov    %eax,-0x2c(%rsp)
  401608:	8b 44 24 f0          	mov    -0x10(%rsp),%eax
  40160c:	69 c0 37 cc 00 00    	imul   $0xcc37,%eax,%eax
  401612:	89 44 24 f0          	mov    %eax,-0x10(%rsp)
  401616:	8b 44 24 f4          	mov    -0xc(%rsp),%eax
  40161a:	69 c0 3b ae 00 00    	imul   $0xae3b,%eax,%eax
  401620:	89 44 24 f4          	mov    %eax,-0xc(%rsp)
  401624:	8b 44 24 d0          	mov    -0x30(%rsp),%eax
  401628:	69 c0 26 9f 00 00    	imul   $0x9f26,%eax,%eax
  40162e:	89 44 24 d0          	mov    %eax,-0x30(%rsp)
  401632:	8b 44 24 d8          	mov    -0x28(%rsp),%eax
  401636:	69 c0 c1 bb 00 00    	imul   $0xbbc1,%eax,%eax
  40163c:	89 44 24 d8          	mov    %eax,-0x28(%rsp)
  401640:	8b 44 24 e0          	mov    -0x20(%rsp),%eax
  401644:	69 c0 ed 07 00 00    	imul   $0x7ed,%eax,%eax
  40164a:	89 44 24 e0          	mov    %eax,-0x20(%rsp)
  40164e:	8b 44 24 e8          	mov    -0x18(%rsp),%eax
  401652:	69 c0 4d a1 00 00    	imul   $0xa14d,%eax,%eax
  401658:	89 44 24 e8          	mov    %eax,-0x18(%rsp)
  40165c:	8b 44 24 d0          	mov    -0x30(%rsp),%eax
  401660:	69 c0 11 ec 00 00    	imul   $0xec11,%eax,%eax
  401666:	89 44 24 d0          	mov    %eax,-0x30(%rsp)
  40166a:	8b 44 24 f4          	mov    -0xc(%rsp),%eax
  40166e:	69 c0 d2 49 00 00    	imul   $0x49d2,%eax,%eax
  401674:	89 44 24 f4          	mov    %eax,-0xc(%rsp)
  401678:	8b 44 24 ec          	mov    -0x14(%rsp),%eax
  40167c:	69 c0 69 14 00 00    	imul   $0x1469,%eax,%eax
  401682:	89 44 24 ec          	mov    %eax,-0x14(%rsp)
  401686:	8b 44 24 e0          	mov    -0x20(%rsp),%eax
  40168a:	69 c0 5a 09 00 00    	imul   $0x95a,%eax,%eax
  401690:	89 44 24 e0          	mov    %eax,-0x20(%rsp)
  401694:	8b 44 24 e8          	mov    -0x18(%rsp),%eax
  401698:	69 c0 6b 39 00 00    	imul   $0x396b,%eax,%eax
  40169e:	89 44 24 e8          	mov    %eax,-0x18(%rsp)
  4016a2:	8b 44 24 f0          	mov    -0x10(%rsp),%eax
  4016a6:	69 c0 80 53 00 00    	imul   $0x5380,%eax,%eax
  4016ac:	89 44 24 f0          	mov    %eax,-0x10(%rsp)
  4016b0:	8b 44 24 d0          	mov    -0x30(%rsp),%eax
  4016b4:	69 c0 e0 8f 00 00    	imul   $0x8fe0,%eax,%eax
  4016ba:	89 44 24 d0          	mov    %eax,-0x30(%rsp)
  4016be:	8b 44 24 d4          	mov    -0x2c(%rsp),%eax
  4016c2:	69 c0 d7 75 00 00    	imul   $0x75d7,%eax,%eax
  4016c8:	89 44 24 d4          	mov    %eax,-0x2c(%rsp)
  4016cc:	8b 44 24 ec          	mov    -0x14(%rsp),%eax
  4016d0:	69 c0 8b 68 00 00    	imul   $0x688b,%eax,%eax
  4016d6:	89 44 24 ec          	mov    %eax,-0x14(%rsp)
  4016da:	8b 44 24 d8          	mov    -0x28(%rsp),%eax
  4016de:	69 c0 cc 72 00 00    	imul   $0x72cc,%eax,%eax
  4016e4:	89 44 24 d8          	mov    %eax,-0x28(%rsp)
  4016e8:	ba 00 00 00 00       	mov    $0x0,%edx
  4016ed:	b8 00 00 00 00       	mov    $0x0,%eax
  4016f2:	eb 0b                	jmp    4016ff <scramble+0x45c>
  4016f4:	89 d1                	mov    %edx,%ecx
  4016f6:	8b 4c 8c d0          	mov    -0x30(%rsp,%rcx,4),%ecx
  4016fa:	01 c8                	add    %ecx,%eax
  4016fc:	83 c2 01             	add    $0x1,%edx
  4016ff:	83 fa 09             	cmp    $0x9,%edx
  401702:	76 f0                	jbe    4016f4 <scramble+0x451>
  401704:	f3 c3                	repz ret 

0000000000401706 <getbuf>:
  401706:	48 83 ec 28          	sub    $0x28,%rsp
  40170a:	48 89 e7             	mov    %rsp,%rdi
  40170d:	e8 38 02 00 00       	call   40194a <Gets>
  401712:	b8 01 00 00 00       	mov    $0x1,%eax
  401717:	48 83 c4 28          	add    $0x28,%rsp
  40171b:	c3                   	ret    

000000000040171c <touch1>:
  40171c:	48 83 ec 08          	sub    $0x8,%rsp
  401720:	c7 05 d2 2d 20 00 01 	movl   $0x1,0x202dd2(%rip)        # 6044fc <vlevel>
  401727:	00 00 00 
  40172a:	bf 88 2e 40 00       	mov    $0x402e88,%edi
  40172f:	e8 1c f5 ff ff       	call   400c50 <puts@plt>
  401734:	bf 01 00 00 00       	mov    $0x1,%edi
  401739:	e8 fb 03 00 00       	call   401b39 <validate>
  40173e:	bf 00 00 00 00       	mov    $0x0,%edi
  401743:	e8 a8 f6 ff ff       	call   400df0 <exit@plt>

0000000000401748 <touch2>:
  401748:	48 83 ec 08          	sub    $0x8,%rsp
  40174c:	89 fe                	mov    %edi,%esi
  40174e:	c7 05 a4 2d 20 00 02 	movl   $0x2,0x202da4(%rip)        # 6044fc <vlevel>
  401755:	00 00 00 
  401758:	3b 3d a6 2d 20 00    	cmp    0x202da6(%rip),%edi        # 604504 <cookie>
  40175e:	75 1b                	jne    40177b <touch2+0x33>
  401760:	bf b0 2e 40 00       	mov    $0x402eb0,%edi
  401765:	b8 00 00 00 00       	mov    $0x0,%eax
  40176a:	e8 11 f5 ff ff       	call   400c80 <printf@plt>
  40176f:	bf 02 00 00 00       	mov    $0x2,%edi
  401774:	e8 c0 03 00 00       	call   401b39 <validate>
  401779:	eb 19                	jmp    401794 <touch2+0x4c>
  40177b:	bf d8 2e 40 00       	mov    $0x402ed8,%edi
  401780:	b8 00 00 00 00       	mov    $0x0,%eax
  401785:	e8 f6 f4 ff ff       	call   400c80 <printf@plt>
  40178a:	bf 02 00 00 00       	mov    $0x2,%edi
  40178f:	e8 57 04 00 00       	call   401beb <fail>
  401794:	bf 00 00 00 00       	mov    $0x0,%edi
  401799:	e8 52 f6 ff ff       	call   400df0 <exit@plt>

000000000040179e <hexmatch>:
  40179e:	41 54                	push   %r12
  4017a0:	55                   	push   %rbp
  4017a1:	53                   	push   %rbx
  4017a2:	48 83 ec 70          	sub    $0x70,%rsp
  4017a6:	41 89 fc             	mov    %edi,%r12d
  4017a9:	48 89 f5             	mov    %rsi,%rbp
  4017ac:	e8 9f f5 ff ff       	call   400d50 <random@plt>
  4017b1:	48 89 c1             	mov    %rax,%rcx
  4017b4:	48 ba 0b d7 a3 70 3d 	movabs $0xa3d70a3d70a3d70b,%rdx
  4017bb:	0a d7 a3 
  4017be:	48 f7 ea             	imul   %rdx
  4017c1:	48 8d 04 0a          	lea    (%rdx,%rcx,1),%rax
  4017c5:	48 c1 f8 06          	sar    $0x6,%rax
  4017c9:	48 89 ce             	mov    %rcx,%rsi
  4017cc:	48 c1 fe 3f          	sar    $0x3f,%rsi
  4017d0:	48 29 f0             	sub    %rsi,%rax
  4017d3:	48 8d 04 80          	lea    (%rax,%rax,4),%rax
  4017d7:	48 8d 04 80          	lea    (%rax,%rax,4),%rax
  4017db:	48 c1 e0 02          	shl    $0x2,%rax
  4017df:	48 29 c1             	sub    %rax,%rcx
  4017e2:	48 8d 1c 0c          	lea    (%rsp,%rcx,1),%rbx
  4017e6:	44 89 e2             	mov    %r12d,%edx
  4017e9:	be a5 2e 40 00       	mov    $0x402ea5,%esi
  4017ee:	48 89 df             	mov    %rbx,%rdi
  4017f1:	b8 00 00 00 00       	mov    $0x0,%eax
  4017f6:	e8 e5 f5 ff ff       	call   400de0 <sprintf@plt>
  4017fb:	ba 09 00 00 00       	mov    $0x9,%edx
  401800:	48 89 de             	mov    %rbx,%rsi
  401803:	48 89 ef             	mov    %rbp,%rdi
  401806:	e8 25 f4 ff ff       	call   400c30 <strncmp@plt>
  40180b:	85 c0                	test   %eax,%eax
  40180d:	0f 94 c0             	sete   %al
  401810:	0f b6 c0             	movzbl %al,%eax
  401813:	48 83 c4 70          	add    $0x70,%rsp
  401817:	5b                   	pop    %rbx
  401818:	5d                   	pop    %rbp
  401819:	41 5c                	pop    %r12
  40181b:	c3                   	ret    

000000000040181c <touch3>:
  40181c:	53                   	push   %rbx
  40181d:	48 89 fb             	mov    %rdi,%rbx
  401820:	c7 05 d2 2c 20 00 03 	movl   $0x3,0x202cd2(%rip)        # 6044fc <vlevel>
  401827:	00 00 00 
  40182a:	48 89 fe             	mov    %rdi,%rsi
  40182d:	8b 3d d1 2c 20 00    	mov    0x202cd1(%rip),%edi        # 604504 <cookie>
  401833:	e8 66 ff ff ff       	call   40179e <hexmatch>
  401838:	85 c0                	test   %eax,%eax
  40183a:	74 1e                	je     40185a <touch3+0x3e>
  40183c:	48 89 de             	mov    %rbx,%rsi
  40183f:	bf 00 2f 40 00       	mov    $0x402f00,%edi
  401844:	b8 00 00 00 00       	mov    $0x0,%eax
  401849:	e8 32 f4 ff ff       	call   400c80 <printf@plt>
  40184e:	bf 03 00 00 00       	mov    $0x3,%edi
  401853:	e8 e1 02 00 00       	call   401b39 <validate>
  401858:	eb 1c                	jmp    401876 <touch3+0x5a>
  40185a:	48 89 de             	mov    %rbx,%rsi
  40185d:	bf 28 2f 40 00       	mov    $0x402f28,%edi
  401862:	b8 00 00 00 00       	mov    $0x0,%eax
  401867:	e8 14 f4 ff ff       	call   400c80 <printf@plt>
  40186c:	bf 03 00 00 00       	mov    $0x3,%edi
  401871:	e8 75 03 00 00       	call   401beb <fail>
  401876:	bf 00 00 00 00       	mov    $0x0,%edi
  40187b:	e8 70 f5 ff ff       	call   400df0 <exit@plt>

0000000000401880 <test>:
  401880:	48 83 ec 08          	sub    $0x8,%rsp
  401884:	b8 00 00 00 00       	mov    $0x0,%eax
  401889:	e8 78 fe ff ff       	call   401706 <getbuf>
  40188e:	89 c6                	mov    %eax,%esi
  401890:	bf 50 2f 40 00       	mov    $0x402f50,%edi
  401895:	b8 00 00 00 00       	mov    $0x0,%eax
  40189a:	e8 e1 f3 ff ff       	call   400c80 <printf@plt>
  40189f:	48 83 c4 08          	add    $0x8,%rsp
  4018a3:	c3                   	ret    
  4018a4:	66 2e 0f 1f 84 00 00 	cs nopw 0x0(%rax,%rax,1)
  4018ab:	00 00 00 
  4018ae:	66 90                	xchg   %ax,%ax

00000000004018b0 <save_char>:
  4018b0:	8b 05 6e 38 20 00    	mov    0x20386e(%rip),%eax        # 605124 <gets_cnt>
  4018b6:	3d ff 03 00 00       	cmp    $0x3ff,%eax
  4018bb:	7f 49                	jg     401906 <save_char+0x56>
  4018bd:	8d 14 40             	lea    (%rax,%rax,2),%edx
  4018c0:	89 f9                	mov    %edi,%ecx
  4018c2:	c0 e9 04             	shr    $0x4,%cl
  4018c5:	83 e1 0f             	and    $0xf,%ecx
  4018c8:	0f b6 b1 70 32 40 00 	movzbl 0x403270(%rcx),%esi
  4018cf:	48 63 ca             	movslq %edx,%rcx
  4018d2:	40 88 b1 20 45 60 00 	mov    %sil,0x604520(%rcx)
  4018d9:	8d 4a 01             	lea    0x1(%rdx),%ecx
  4018dc:	83 e7 0f             	and    $0xf,%edi
  4018df:	0f b6 b7 70 32 40 00 	movzbl 0x403270(%rdi),%esi
  4018e6:	48 63 c9             	movslq %ecx,%rcx
  4018e9:	40 88 b1 20 45 60 00 	mov    %sil,0x604520(%rcx)
  4018f0:	83 c2 02             	add    $0x2,%edx
  4018f3:	48 63 d2             	movslq %edx,%rdx
  4018f6:	c6 82 20 45 60 00 20 	movb   $0x20,0x604520(%rdx)
  4018fd:	83 c0 01             	add    $0x1,%eax
  401900:	89 05 1e 38 20 00    	mov    %eax,0x20381e(%rip)        # 605124 <gets_cnt>
  401906:	f3 c3                	repz ret 

0000000000401908 <save_term>:
  401908:	8b 05 16 38 20 00    	mov    0x203816(%rip),%eax        # 605124 <gets_cnt>
  40190e:	8d 04 40             	lea    (%rax,%rax,2),%eax
  401911:	48 98                	cltq   
  401913:	c6 80 20 45 60 00 00 	movb   $0x0,0x604520(%rax)
  40191a:	c3                   	ret    

000000000040191b <check_fail>:
  40191b:	48 83 ec 08          	sub    $0x8,%rsp
  40191f:	0f be 35 02 38 20 00 	movsbl 0x203802(%rip),%esi        # 605128 <target_prefix>
  401926:	b9 20 45 60 00       	mov    $0x604520,%ecx
  40192b:	8b 15 c7 2b 20 00    	mov    0x202bc7(%rip),%edx        # 6044f8 <check_level>
  401931:	bf 73 2f 40 00       	mov    $0x402f73,%edi
  401936:	b8 00 00 00 00       	mov    $0x0,%eax
  40193b:	e8 40 f3 ff ff       	call   400c80 <printf@plt>
  401940:	bf 01 00 00 00       	mov    $0x1,%edi
  401945:	e8 a6 f4 ff ff       	call   400df0 <exit@plt>

000000000040194a <Gets>:
  40194a:	41 54                	push   %r12
  40194c:	55                   	push   %rbp
  40194d:	53                   	push   %rbx
  40194e:	49 89 fc             	mov    %rdi,%r12
  401951:	c7 05 c9 37 20 00 00 	movl   $0x0,0x2037c9(%rip)        # 605124 <gets_cnt>
  401958:	00 00 00 
  40195b:	48 89 fb             	mov    %rdi,%rbx
  40195e:	eb 11                	jmp    401971 <Gets+0x27>
  401960:	48 8d 6b 01          	lea    0x1(%rbx),%rbp
  401964:	88 03                	mov    %al,(%rbx)
  401966:	0f b6 f8             	movzbl %al,%edi
  401969:	e8 42 ff ff ff       	call   4018b0 <save_char>
  40196e:	48 89 eb             	mov    %rbp,%rbx
  401971:	48 8b 3d 78 2b 20 00 	mov    0x202b78(%rip),%rdi        # 6044f0 <infile>
  401978:	e8 e3 f3 ff ff       	call   400d60 <_IO_getc@plt>
  40197d:	83 f8 ff             	cmp    $0xffffffff,%eax
  401980:	74 05                	je     401987 <Gets+0x3d>
  401982:	83 f8 0a             	cmp    $0xa,%eax
  401985:	75 d9                	jne    401960 <Gets+0x16>
  401987:	c6 03 00             	movb   $0x0,(%rbx)
  40198a:	b8 00 00 00 00       	mov    $0x0,%eax
  40198f:	e8 74 ff ff ff       	call   401908 <save_term>
  401994:	4c 89 e0             	mov    %r12,%rax
  401997:	5b                   	pop    %rbx
  401998:	5d                   	pop    %rbp
  401999:	41 5c                	pop    %r12
  40199b:	c3                   	ret    

000000000040199c <notify_server>:
  40199c:	83 3d 65 2b 20 00 00 	cmpl   $0x0,0x202b65(%rip)        # 604508 <is_checker>
  4019a3:	0f 85 8e 01 00 00    	jne    401b37 <notify_server+0x19b>
  4019a9:	53                   	push   %rbx
  4019aa:	48 81 ec 10 40 00 00 	sub    $0x4010,%rsp
  4019b1:	89 fb                	mov    %edi,%ebx
  4019b3:	8b 05 6b 37 20 00    	mov    0x20376b(%rip),%eax        # 605124 <gets_cnt>
  4019b9:	83 c0 64             	add    $0x64,%eax
  4019bc:	3d 00 20 00 00       	cmp    $0x2000,%eax
  4019c1:	7e 19                	jle    4019dc <notify_server+0x40>
  4019c3:	bf a8 30 40 00       	mov    $0x4030a8,%edi
  4019c8:	b8 00 00 00 00       	mov    $0x0,%eax
  4019cd:	e8 ae f2 ff ff       	call   400c80 <printf@plt>
  4019d2:	bf 01 00 00 00       	mov    $0x1,%edi
  4019d7:	e8 14 f4 ff ff       	call   400df0 <exit@plt>
  4019dc:	44 0f be 0d 44 37 20 	movsbl 0x203744(%rip),%r9d        # 605128 <target_prefix>
  4019e3:	00 
  4019e4:	83 3d bd 2a 20 00 00 	cmpl   $0x0,0x202abd(%rip)        # 6044a8 <notify>
  4019eb:	74 09                	je     4019f6 <notify_server+0x5a>
  4019ed:	44 8b 05 0c 2b 20 00 	mov    0x202b0c(%rip),%r8d        # 604500 <authkey>
  4019f4:	eb 06                	jmp    4019fc <notify_server+0x60>
  4019f6:	41 b8 ff ff ff ff    	mov    $0xffffffff,%r8d
  4019fc:	85 db                	test   %ebx,%ebx
  4019fe:	74 07                	je     401a07 <notify_server+0x6b>
  401a00:	b9 89 2f 40 00       	mov    $0x402f89,%ecx
  401a05:	eb 05                	jmp    401a0c <notify_server+0x70>
  401a07:	b9 8e 2f 40 00       	mov    $0x402f8e,%ecx
  401a0c:	48 c7 44 24 08 20 45 	movq   $0x604520,0x8(%rsp)
  401a13:	60 00 
  401a15:	89 34 24             	mov    %esi,(%rsp)
  401a18:	8b 15 4a 27 20 00    	mov    0x20274a(%rip),%edx        # 604168 <target_id>
  401a1e:	be 93 2f 40 00       	mov    $0x402f93,%esi
  401a23:	48 8d bc 24 10 20 00 	lea    0x2010(%rsp),%rdi
  401a2a:	00 
  401a2b:	b8 00 00 00 00       	mov    $0x0,%eax
  401a30:	e8 ab f3 ff ff       	call   400de0 <sprintf@plt>
  401a35:	83 3d 6c 2a 20 00 00 	cmpl   $0x0,0x202a6c(%rip)        # 6044a8 <notify>
  401a3c:	74 78                	je     401ab6 <notify_server+0x11a>
  401a3e:	85 db                	test   %ebx,%ebx
  401a40:	74 68                	je     401aaa <notify_server+0x10e>
  401a42:	4c 8d 4c 24 10       	lea    0x10(%rsp),%r9
  401a47:	41 b8 00 00 00 00    	mov    $0x0,%r8d
  401a4d:	48 8d 8c 24 10 20 00 	lea    0x2010(%rsp),%rcx
  401a54:	00 
  401a55:	48 8b 15 14 27 20 00 	mov    0x202714(%rip),%rdx        # 604170 <lab>
  401a5c:	48 8b 35 15 27 20 00 	mov    0x202715(%rip),%rsi        # 604178 <course>
  401a63:	48 8b 3d f6 26 20 00 	mov    0x2026f6(%rip),%rdi        # 604160 <user_id>
  401a6a:	e8 94 0f 00 00       	call   402a03 <driver_post>
  401a6f:	85 c0                	test   %eax,%eax
  401a71:	79 1e                	jns    401a91 <notify_server+0xf5>
  401a73:	48 8d 74 24 10       	lea    0x10(%rsp),%rsi
  401a78:	bf af 2f 40 00       	mov    $0x402faf,%edi
  401a7d:	b8 00 00 00 00       	mov    $0x0,%eax
  401a82:	e8 f9 f1 ff ff       	call   400c80 <printf@plt>
  401a87:	bf 01 00 00 00       	mov    $0x1,%edi
  401a8c:	e8 5f f3 ff ff       	call   400df0 <exit@plt>
  401a91:	bf d8 30 40 00       	mov    $0x4030d8,%edi
  401a96:	e8 b5 f1 ff ff       	call   400c50 <puts@plt>
  401a9b:	bf bb 2f 40 00       	mov    $0x402fbb,%edi
  401aa0:	e8 ab f1 ff ff       	call   400c50 <puts@plt>
  401aa5:	e9 85 00 00 00       	jmp    401b2f <notify_server+0x193>
  401aaa:	bf c5 2f 40 00       	mov    $0x402fc5,%edi
  401aaf:	e8 9c f1 ff ff       	call   400c50 <puts@plt>
  401ab4:	eb 79                	jmp    401b2f <notify_server+0x193>
  401ab6:	85 db                	test   %ebx,%ebx
  401ab8:	74 08                	je     401ac2 <notify_server+0x126>
  401aba:	be 89 2f 40 00       	mov    $0x402f89,%esi
  401abf:	90                   	nop
  401ac0:	eb 05                	jmp    401ac7 <notify_server+0x12b>
  401ac2:	be 8e 2f 40 00       	mov    $0x402f8e,%esi
  401ac7:	bf 10 31 40 00       	mov    $0x403110,%edi
  401acc:	b8 00 00 00 00       	mov    $0x0,%eax
  401ad1:	e8 aa f1 ff ff       	call   400c80 <printf@plt>
  401ad6:	48 8b 35 83 26 20 00 	mov    0x202683(%rip),%rsi        # 604160 <user_id>
  401add:	bf cc 2f 40 00       	mov    $0x402fcc,%edi
  401ae2:	b8 00 00 00 00       	mov    $0x0,%eax
  401ae7:	e8 94 f1 ff ff       	call   400c80 <printf@plt>
  401aec:	48 8b 35 85 26 20 00 	mov    0x202685(%rip),%rsi        # 604178 <course>
  401af3:	bf d9 2f 40 00       	mov    $0x402fd9,%edi
  401af8:	b8 00 00 00 00       	mov    $0x0,%eax
  401afd:	e8 7e f1 ff ff       	call   400c80 <printf@plt>
  401b02:	48 8b 35 67 26 20 00 	mov    0x202667(%rip),%rsi        # 604170 <lab>
  401b09:	bf e5 2f 40 00       	mov    $0x402fe5,%edi
  401b0e:	b8 00 00 00 00       	mov    $0x0,%eax
  401b13:	e8 68 f1 ff ff       	call   400c80 <printf@plt>
  401b18:	48 8d b4 24 10 20 00 	lea    0x2010(%rsp),%rsi
  401b1f:	00 
  401b20:	bf ee 2f 40 00       	mov    $0x402fee,%edi
  401b25:	b8 00 00 00 00       	mov    $0x0,%eax
  401b2a:	e8 51 f1 ff ff       	call   400c80 <printf@plt>
  401b2f:	48 81 c4 10 40 00 00 	add    $0x4010,%rsp
  401b36:	5b                   	pop    %rbx
  401b37:	f3 c3                	repz ret 

0000000000401b39 <validate>:
  401b39:	53                   	push   %rbx
  401b3a:	89 fb                	mov    %edi,%ebx
  401b3c:	83 3d c5 29 20 00 00 	cmpl   $0x0,0x2029c5(%rip)        # 604508 <is_checker>
  401b43:	74 60                	je     401ba5 <validate+0x6c>
  401b45:	39 3d b1 29 20 00    	cmp    %edi,0x2029b1(%rip)        # 6044fc <vlevel>
  401b4b:	74 14                	je     401b61 <validate+0x28>
  401b4d:	bf fa 2f 40 00       	mov    $0x402ffa,%edi
  401b52:	e8 f9 f0 ff ff       	call   400c50 <puts@plt>
  401b57:	b8 00 00 00 00       	mov    $0x0,%eax
  401b5c:	e8 ba fd ff ff       	call   40191b <check_fail>
  401b61:	8b 35 91 29 20 00    	mov    0x202991(%rip),%esi        # 6044f8 <check_level>
  401b67:	39 fe                	cmp    %edi,%esi
  401b69:	74 1b                	je     401b86 <validate+0x4d>
  401b6b:	89 fa                	mov    %edi,%edx
  401b6d:	bf 38 31 40 00       	mov    $0x403138,%edi
  401b72:	b8 00 00 00 00       	mov    $0x0,%eax
  401b77:	e8 04 f1 ff ff       	call   400c80 <printf@plt>
  401b7c:	b8 00 00 00 00       	mov    $0x0,%eax
  401b81:	e8 95 fd ff ff       	call   40191b <check_fail>
  401b86:	0f be 35 9b 35 20 00 	movsbl 0x20359b(%rip),%esi        # 605128 <target_prefix>
  401b8d:	b9 20 45 60 00       	mov    $0x604520,%ecx
  401b92:	89 fa                	mov    %edi,%edx
  401b94:	bf 18 30 40 00       	mov    $0x403018,%edi
  401b99:	b8 00 00 00 00       	mov    $0x0,%eax
  401b9e:	e8 dd f0 ff ff       	call   400c80 <printf@plt>
  401ba3:	eb 44                	jmp    401be9 <validate+0xb0>
  401ba5:	39 3d 51 29 20 00    	cmp    %edi,0x202951(%rip)        # 6044fc <vlevel>
  401bab:	74 18                	je     401bc5 <validate+0x8c>
  401bad:	bf fa 2f 40 00       	mov    $0x402ffa,%edi
  401bb2:	e8 99 f0 ff ff       	call   400c50 <puts@plt>
  401bb7:	89 de                	mov    %ebx,%esi
  401bb9:	bf 00 00 00 00       	mov    $0x0,%edi
  401bbe:	e8 d9 fd ff ff       	call   40199c <notify_server>
  401bc3:	eb 24                	jmp    401be9 <validate+0xb0>
  401bc5:	0f be 15 5c 35 20 00 	movsbl 0x20355c(%rip),%edx        # 605128 <target_prefix>
  401bcc:	89 fe                	mov    %edi,%esi
  401bce:	bf 60 31 40 00       	mov    $0x403160,%edi
  401bd3:	b8 00 00 00 00       	mov    $0x0,%eax
  401bd8:	e8 a3 f0 ff ff       	call   400c80 <printf@plt>
  401bdd:	89 de                	mov    %ebx,%esi
  401bdf:	bf 01 00 00 00       	mov    $0x1,%edi
  401be4:	e8 b3 fd ff ff       	call   40199c <notify_server>
  401be9:	5b                   	pop    %rbx
  401bea:	c3                   	ret    

0000000000401beb <fail>:
  401beb:	48 83 ec 08          	sub    $0x8,%rsp
  401bef:	83 3d 12 29 20 00 00 	cmpl   $0x0,0x202912(%rip)        # 604508 <is_checker>
  401bf6:	74 0a                	je     401c02 <fail+0x17>
  401bf8:	b8 00 00 00 00       	mov    $0x0,%eax
  401bfd:	e8 19 fd ff ff       	call   40191b <check_fail>
  401c02:	89 fe                	mov    %edi,%esi
  401c04:	bf 00 00 00 00       	mov    $0x0,%edi
  401c09:	e8 8e fd ff ff       	call   40199c <notify_server>
  401c0e:	48 83 c4 08          	add    $0x8,%rsp
  401c12:	c3                   	ret    

0000000000401c13 <bushandler>:
  401c13:	48 83 ec 08          	sub    $0x8,%rsp
  401c17:	83 3d ea 28 20 00 00 	cmpl   $0x0,0x2028ea(%rip)        # 604508 <is_checker>
  401c1e:	74 14                	je     401c34 <bushandler+0x21>
  401c20:	bf 2d 30 40 00       	mov    $0x40302d,%edi
  401c25:	e8 26 f0 ff ff       	call   400c50 <puts@plt>
  401c2a:	b8 00 00 00 00       	mov    $0x0,%eax
  401c2f:	e8 e7 fc ff ff       	call   40191b <check_fail>
  401c34:	bf 98 31 40 00       	mov    $0x403198,%edi
  401c39:	e8 12 f0 ff ff       	call   400c50 <puts@plt>
  401c3e:	bf 37 30 40 00       	mov    $0x403037,%edi
  401c43:	e8 08 f0 ff ff       	call   400c50 <puts@plt>
  401c48:	be 00 00 00 00       	mov    $0x0,%esi
  401c4d:	bf 00 00 00 00       	mov    $0x0,%edi
  401c52:	e8 45 fd ff ff       	call   40199c <notify_server>
  401c57:	bf 01 00 00 00       	mov    $0x1,%edi
  401c5c:	e8 8f f1 ff ff       	call   400df0 <exit@plt>

0000000000401c61 <seghandler>:
  401c61:	48 83 ec 08          	sub    $0x8,%rsp
  401c65:	83 3d 9c 28 20 00 00 	cmpl   $0x0,0x20289c(%rip)        # 604508 <is_checker>
  401c6c:	74 14                	je     401c82 <seghandler+0x21>
  401c6e:	bf 4d 30 40 00       	mov    $0x40304d,%edi
  401c73:	e8 d8 ef ff ff       	call   400c50 <puts@plt>
  401c78:	b8 00 00 00 00       	mov    $0x0,%eax
  401c7d:	e8 99 fc ff ff       	call   40191b <check_fail>
  401c82:	bf b8 31 40 00       	mov    $0x4031b8,%edi
  401c87:	e8 c4 ef ff ff       	call   400c50 <puts@plt>
  401c8c:	bf 37 30 40 00       	mov    $0x403037,%edi
  401c91:	e8 ba ef ff ff       	call   400c50 <puts@plt>
  401c96:	be 00 00 00 00       	mov    $0x0,%esi
  401c9b:	bf 00 00 00 00       	mov    $0x0,%edi
  401ca0:	e8 f7 fc ff ff       	call   40199c <notify_server>
  401ca5:	bf 01 00 00 00       	mov    $0x1,%edi
  401caa:	e8 41 f1 ff ff       	call   400df0 <exit@plt>

0000000000401caf <illegalhandler>:
  401caf:	48 83 ec 08          	sub    $0x8,%rsp
  401cb3:	83 3d 4e 28 20 00 00 	cmpl   $0x0,0x20284e(%rip)        # 604508 <is_checker>
  401cba:	74 14                	je     401cd0 <illegalhandler+0x21>
  401cbc:	bf 60 30 40 00       	mov    $0x403060,%edi
  401cc1:	e8 8a ef ff ff       	call   400c50 <puts@plt>
  401cc6:	b8 00 00 00 00       	mov    $0x0,%eax
  401ccb:	e8 4b fc ff ff       	call   40191b <check_fail>
  401cd0:	bf e0 31 40 00       	mov    $0x4031e0,%edi
  401cd5:	e8 76 ef ff ff       	call   400c50 <puts@plt>
  401cda:	bf 37 30 40 00       	mov    $0x403037,%edi
  401cdf:	e8 6c ef ff ff       	call   400c50 <puts@plt>
  401ce4:	be 00 00 00 00       	mov    $0x0,%esi
  401ce9:	bf 00 00 00 00       	mov    $0x0,%edi
  401cee:	e8 a9 fc ff ff       	call   40199c <notify_server>
  401cf3:	bf 01 00 00 00       	mov    $0x1,%edi
  401cf8:	e8 f3 f0 ff ff       	call   400df0 <exit@plt>

0000000000401cfd <sigalrmhandler>:
  401cfd:	48 83 ec 08          	sub    $0x8,%rsp
  401d01:	83 3d 00 28 20 00 00 	cmpl   $0x0,0x202800(%rip)        # 604508 <is_checker>
  401d08:	74 14                	je     401d1e <sigalrmhandler+0x21>
  401d0a:	bf 74 30 40 00       	mov    $0x403074,%edi
  401d0f:	e8 3c ef ff ff       	call   400c50 <puts@plt>
  401d14:	b8 00 00 00 00       	mov    $0x0,%eax
  401d19:	e8 fd fb ff ff       	call   40191b <check_fail>
  401d1e:	be 05 00 00 00       	mov    $0x5,%esi
  401d23:	bf 10 32 40 00       	mov    $0x403210,%edi
  401d28:	b8 00 00 00 00       	mov    $0x0,%eax
  401d2d:	e8 4e ef ff ff       	call   400c80 <printf@plt>
  401d32:	be 00 00 00 00       	mov    $0x0,%esi
  401d37:	bf 00 00 00 00       	mov    $0x0,%edi
  401d3c:	e8 5b fc ff ff       	call   40199c <notify_server>
  401d41:	bf 01 00 00 00       	mov    $0x1,%edi
  401d46:	e8 a5 f0 ff ff       	call   400df0 <exit@plt>

0000000000401d4b <launch>:
  401d4b:	55                   	push   %rbp
  401d4c:	48 89 e5             	mov    %rsp,%rbp
  401d4f:	48 89 fa             	mov    %rdi,%rdx
  401d52:	48 8d 47 1e          	lea    0x1e(%rdi),%rax
  401d56:	48 83 e0 f0          	and    $0xfffffffffffffff0,%rax
  401d5a:	48 29 c4             	sub    %rax,%rsp
  401d5d:	48 8d 7c 24 0f       	lea    0xf(%rsp),%rdi
  401d62:	48 83 e7 f0          	and    $0xfffffffffffffff0,%rdi
  401d66:	be f4 00 00 00       	mov    $0xf4,%esi
  401d6b:	e8 20 ef ff ff       	call   400c90 <memset@plt>
  401d70:	48 8b 05 49 27 20 00 	mov    0x202749(%rip),%rax        # 6044c0 <stdin@GLIBC_2.2.5>
  401d77:	48 39 05 72 27 20 00 	cmp    %rax,0x202772(%rip)        # 6044f0 <infile>
  401d7e:	75 0f                	jne    401d8f <launch+0x44>
  401d80:	bf 7c 30 40 00       	mov    $0x40307c,%edi
  401d85:	b8 00 00 00 00       	mov    $0x0,%eax
  401d8a:	e8 f1 ee ff ff       	call   400c80 <printf@plt>
  401d8f:	c7 05 63 27 20 00 00 	movl   $0x0,0x202763(%rip)        # 6044fc <vlevel>
  401d96:	00 00 00 
  401d99:	b8 00 00 00 00       	mov    $0x0,%eax
  401d9e:	e8 dd fa ff ff       	call   401880 <test>
  401da3:	83 3d 5e 27 20 00 00 	cmpl   $0x0,0x20275e(%rip)        # 604508 <is_checker>
  401daa:	74 14                	je     401dc0 <launch+0x75>
  401dac:	bf 89 30 40 00       	mov    $0x403089,%edi
  401db1:	e8 9a ee ff ff       	call   400c50 <puts@plt>
  401db6:	b8 00 00 00 00       	mov    $0x0,%eax
  401dbb:	e8 5b fb ff ff       	call   40191b <check_fail>
  401dc0:	bf 94 30 40 00       	mov    $0x403094,%edi
  401dc5:	e8 86 ee ff ff       	call   400c50 <puts@plt>
  401dca:	c9                   	leave  
  401dcb:	c3                   	ret    

0000000000401dcc <stable_launch>:
  401dcc:	53                   	push   %rbx
  401dcd:	48 89 3d 14 27 20 00 	mov    %rdi,0x202714(%rip)        # 6044e8 <global_offset>
  401dd4:	41 b9 00 00 00 00    	mov    $0x0,%r9d
  401dda:	41 b8 00 00 00 00    	mov    $0x0,%r8d
  401de0:	b9 32 01 00 00       	mov    $0x132,%ecx
  401de5:	ba 07 00 00 00       	mov    $0x7,%edx
  401dea:	be 00 00 10 00       	mov    $0x100000,%esi
  401def:	bf 00 60 58 55       	mov    $0x55586000,%edi
  401df4:	e8 77 ee ff ff       	call   400c70 <mmap@plt>
  401df9:	48 89 c3             	mov    %rax,%rbx
  401dfc:	48 3d 00 60 58 55    	cmp    $0x55586000,%rax
  401e02:	74 32                	je     401e36 <stable_launch+0x6a>
  401e04:	be 00 00 10 00       	mov    $0x100000,%esi
  401e09:	48 89 c7             	mov    %rax,%rdi
  401e0c:	e8 6f ef ff ff       	call   400d80 <munmap@plt>
  401e11:	ba 00 60 58 55       	mov    $0x55586000,%edx
  401e16:	be 48 32 40 00       	mov    $0x403248,%esi
  401e1b:	48 8b 3d ae 26 20 00 	mov    0x2026ae(%rip),%rdi        # 6044d0 <stderr@GLIBC_2.2.5>
  401e22:	b8 00 00 00 00       	mov    $0x0,%eax
  401e27:	e8 d4 ee ff ff       	call   400d00 <fprintf@plt>
  401e2c:	bf 01 00 00 00       	mov    $0x1,%edi
  401e31:	e8 ba ef ff ff       	call   400df0 <exit@plt>
  401e36:	48 8d 90 f8 ff 0f 00 	lea    0xffff8(%rax),%rdx
  401e3d:	48 89 15 ec 32 20 00 	mov    %rdx,0x2032ec(%rip)        # 605130 <stack_top>
  401e44:	48 89 e0             	mov    %rsp,%rax
  401e47:	48 89 d4             	mov    %rdx,%rsp
  401e4a:	48 89 c2             	mov    %rax,%rdx
  401e4d:	48 89 15 8c 26 20 00 	mov    %rdx,0x20268c(%rip)        # 6044e0 <global_save_stack>
  401e54:	48 8b 3d 8d 26 20 00 	mov    0x20268d(%rip),%rdi        # 6044e8 <global_offset>
  401e5b:	e8 eb fe ff ff       	call   401d4b <launch>
  401e60:	48 8b 05 79 26 20 00 	mov    0x202679(%rip),%rax        # 6044e0 <global_save_stack>
  401e67:	48 89 c4             	mov    %rax,%rsp
  401e6a:	be 00 00 10 00       	mov    $0x100000,%esi
  401e6f:	48 89 df             	mov    %rbx,%rdi
  401e72:	e8 09 ef ff ff       	call   400d80 <munmap@plt>
  401e77:	5b                   	pop    %rbx
  401e78:	c3                   	ret    
  401e79:	0f 1f 80 00 00 00 00 	nopl   0x0(%rax)

0000000000401e80 <rio_readinitb>:
  401e80:	89 37                	mov    %esi,(%rdi)
  401e82:	c7 47 04 00 00 00 00 	movl   $0x0,0x4(%rdi)
  401e89:	48 8d 47 10          	lea    0x10(%rdi),%rax
  401e8d:	48 89 47 08          	mov    %rax,0x8(%rdi)
  401e91:	c3                   	ret    

0000000000401e92 <sigalrm_handler>:
  401e92:	48 83 ec 08          	sub    $0x8,%rsp
  401e96:	ba 00 00 00 00       	mov    $0x0,%edx
  401e9b:	be 80 32 40 00       	mov    $0x403280,%esi
  401ea0:	48 8b 3d 29 26 20 00 	mov    0x202629(%rip),%rdi        # 6044d0 <stderr@GLIBC_2.2.5>
  401ea7:	b8 00 00 00 00       	mov    $0x0,%eax
  401eac:	e8 4f ee ff ff       	call   400d00 <fprintf@plt>
  401eb1:	bf 01 00 00 00       	mov    $0x1,%edi
  401eb6:	e8 35 ef ff ff       	call   400df0 <exit@plt>

0000000000401ebb <urlencode>:
  401ebb:	41 54                	push   %r12
  401ebd:	55                   	push   %rbp
  401ebe:	53                   	push   %rbx
  401ebf:	48 83 ec 10          	sub    $0x10,%rsp
  401ec3:	48 89 fb             	mov    %rdi,%rbx
  401ec6:	48 89 f5             	mov    %rsi,%rbp
  401ec9:	b8 00 00 00 00       	mov    $0x0,%eax
  401ece:	48 c7 c1 ff ff ff ff 	mov    $0xffffffffffffffff,%rcx
  401ed5:	f2 ae                	repnz scas %es:(%rdi),%al
  401ed7:	48 f7 d1             	not    %rcx
  401eda:	8d 41 ff             	lea    -0x1(%rcx),%eax
  401edd:	e9 93 00 00 00       	jmp    401f75 <urlencode+0xba>
  401ee2:	0f b6 13             	movzbl (%rbx),%edx
  401ee5:	80 fa 2a             	cmp    $0x2a,%dl
  401ee8:	0f 94 c1             	sete   %cl
  401eeb:	80 fa 2d             	cmp    $0x2d,%dl
  401eee:	0f 94 c0             	sete   %al
  401ef1:	08 c1                	or     %al,%cl
  401ef3:	75 1f                	jne    401f14 <urlencode+0x59>
  401ef5:	80 fa 2e             	cmp    $0x2e,%dl
  401ef8:	74 1a                	je     401f14 <urlencode+0x59>
  401efa:	80 fa 5f             	cmp    $0x5f,%dl
  401efd:	74 15                	je     401f14 <urlencode+0x59>
  401eff:	8d 42 d0             	lea    -0x30(%rdx),%eax
  401f02:	3c 09                	cmp    $0x9,%al
  401f04:	76 0e                	jbe    401f14 <urlencode+0x59>
  401f06:	8d 42 bf             	lea    -0x41(%rdx),%eax
  401f09:	3c 19                	cmp    $0x19,%al
  401f0b:	76 07                	jbe    401f14 <urlencode+0x59>
  401f0d:	8d 42 9f             	lea    -0x61(%rdx),%eax
  401f10:	3c 19                	cmp    $0x19,%al
  401f12:	77 09                	ja     401f1d <urlencode+0x62>
  401f14:	88 55 00             	mov    %dl,0x0(%rbp)
  401f17:	48 8d 6d 01          	lea    0x1(%rbp),%rbp
  401f1b:	eb 51                	jmp    401f6e <urlencode+0xb3>
  401f1d:	80 fa 20             	cmp    $0x20,%dl
  401f20:	75 0a                	jne    401f2c <urlencode+0x71>
  401f22:	c6 45 00 2b          	movb   $0x2b,0x0(%rbp)
  401f26:	48 8d 6d 01          	lea    0x1(%rbp),%rbp
  401f2a:	eb 42                	jmp    401f6e <urlencode+0xb3>
  401f2c:	8d 42 e0             	lea    -0x20(%rdx),%eax
  401f2f:	3c 5f                	cmp    $0x5f,%al
  401f31:	0f 96 c1             	setbe  %cl
  401f34:	80 fa 09             	cmp    $0x9,%dl
  401f37:	0f 94 c0             	sete   %al
  401f3a:	08 c1                	or     %al,%cl
  401f3c:	74 45                	je     401f83 <urlencode+0xc8>
  401f3e:	0f b6 d2             	movzbl %dl,%edx
  401f41:	be 18 33 40 00       	mov    $0x403318,%esi
  401f46:	48 89 e7             	mov    %rsp,%rdi
  401f49:	b8 00 00 00 00       	mov    $0x0,%eax
  401f4e:	e8 8d ee ff ff       	call   400de0 <sprintf@plt>
  401f53:	0f b6 04 24          	movzbl (%rsp),%eax
  401f57:	88 45 00             	mov    %al,0x0(%rbp)
  401f5a:	0f b6 44 24 01       	movzbl 0x1(%rsp),%eax
  401f5f:	88 45 01             	mov    %al,0x1(%rbp)
  401f62:	0f b6 44 24 02       	movzbl 0x2(%rsp),%eax
  401f67:	88 45 02             	mov    %al,0x2(%rbp)
  401f6a:	48 8d 6d 03          	lea    0x3(%rbp),%rbp
  401f6e:	48 83 c3 01          	add    $0x1,%rbx
  401f72:	44 89 e0             	mov    %r12d,%eax
  401f75:	44 8d 60 ff          	lea    -0x1(%rax),%r12d
  401f79:	85 c0                	test   %eax,%eax
  401f7b:	0f 85 61 ff ff ff    	jne    401ee2 <urlencode+0x27>
  401f81:	eb 05                	jmp    401f88 <urlencode+0xcd>
  401f83:	b8 ff ff ff ff       	mov    $0xffffffff,%eax
  401f88:	48 83 c4 10          	add    $0x10,%rsp
  401f8c:	5b                   	pop    %rbx
  401f8d:	5d                   	pop    %rbp
  401f8e:	41 5c                	pop    %r12
  401f90:	c3                   	ret    

0000000000401f91 <rio_writen>:
  401f91:	41 55                	push   %r13
  401f93:	41 54                	push   %r12
  401f95:	55                   	push   %rbp
  401f96:	53                   	push   %rbx
  401f97:	48 83 ec 08          	sub    $0x8,%rsp
  401f9b:	41 89 fc             	mov    %edi,%r12d
  401f9e:	48 89 f5             	mov    %rsi,%rbp
  401fa1:	49 89 d5             	mov    %rdx,%r13
  401fa4:	48 89 d3             	mov    %rdx,%rbx
  401fa7:	eb 28                	jmp    401fd1 <rio_writen+0x40>
  401fa9:	48 89 da             	mov    %rbx,%rdx
  401fac:	48 89 ee             	mov    %rbp,%rsi
  401faf:	44 89 e7             	mov    %r12d,%edi
  401fb2:	e8 a9 ec ff ff       	call   400c60 <write@plt>
  401fb7:	48 85 c0             	test   %rax,%rax
  401fba:	7f 0f                	jg     401fcb <rio_writen+0x3a>
  401fbc:	e8 4f ec ff ff       	call   400c10 <__errno_location@plt>
  401fc1:	83 38 04             	cmpl   $0x4,(%rax)
  401fc4:	75 15                	jne    401fdb <rio_writen+0x4a>
  401fc6:	b8 00 00 00 00       	mov    $0x0,%eax
  401fcb:	48 29 c3             	sub    %rax,%rbx
  401fce:	48 01 c5             	add    %rax,%rbp
  401fd1:	48 85 db             	test   %rbx,%rbx
  401fd4:	75 d3                	jne    401fa9 <rio_writen+0x18>
  401fd6:	4c 89 e8             	mov    %r13,%rax
  401fd9:	eb 07                	jmp    401fe2 <rio_writen+0x51>
  401fdb:	48 c7 c0 ff ff ff ff 	mov    $0xffffffffffffffff,%rax
  401fe2:	48 83 c4 08          	add    $0x8,%rsp
  401fe6:	5b                   	pop    %rbx
  401fe7:	5d                   	pop    %rbp
  401fe8:	41 5c                	pop    %r12
  401fea:	41 5d                	pop    %r13
  401fec:	c3                   	ret    

0000000000401fed <rio_read>:
  401fed:	41 56                	push   %r14
  401fef:	41 55                	push   %r13
  401ff1:	41 54                	push   %r12
  401ff3:	55                   	push   %rbp
  401ff4:	53                   	push   %rbx
  401ff5:	48 89 fb             	mov    %rdi,%rbx
  401ff8:	49 89 f6             	mov    %rsi,%r14
  401ffb:	49 89 d5             	mov    %rdx,%r13
  401ffe:	4c 8d 67 10          	lea    0x10(%rdi),%r12
  402002:	eb 2a                	jmp    40202e <rio_read+0x41>
  402004:	ba 00 20 00 00       	mov    $0x2000,%edx
  402009:	4c 89 e6             	mov    %r12,%rsi
  40200c:	8b 3b                	mov    (%rbx),%edi
  40200e:	e8 ad ec ff ff       	call   400cc0 <read@plt>
  402013:	89 43 04             	mov    %eax,0x4(%rbx)
  402016:	85 c0                	test   %eax,%eax
  402018:	79 0c                	jns    402026 <rio_read+0x39>
  40201a:	e8 f1 eb ff ff       	call   400c10 <__errno_location@plt>
  40201f:	83 38 04             	cmpl   $0x4,(%rax)
  402022:	74 0a                	je     40202e <rio_read+0x41>
  402024:	eb 37                	jmp    40205d <rio_read+0x70>
  402026:	85 c0                	test   %eax,%eax
  402028:	74 3c                	je     402066 <rio_read+0x79>
  40202a:	4c 89 63 08          	mov    %r12,0x8(%rbx)
  40202e:	8b 6b 04             	mov    0x4(%rbx),%ebp
  402031:	85 ed                	test   %ebp,%ebp
  402033:	7e cf                	jle    402004 <rio_read+0x17>
  402035:	89 e8                	mov    %ebp,%eax
  402037:	4c 39 e8             	cmp    %r13,%rax
  40203a:	72 03                	jb     40203f <rio_read+0x52>
  40203c:	44 89 ed             	mov    %r13d,%ebp
  40203f:	4c 63 e5             	movslq %ebp,%r12
  402042:	48 8b 73 08          	mov    0x8(%rbx),%rsi
  402046:	4c 89 e2             	mov    %r12,%rdx
  402049:	4c 89 f7             	mov    %r14,%rdi
  40204c:	e8 df ec ff ff       	call   400d30 <memcpy@plt>
  402051:	4c 01 63 08          	add    %r12,0x8(%rbx)
  402055:	29 6b 04             	sub    %ebp,0x4(%rbx)
  402058:	4c 89 e0             	mov    %r12,%rax
  40205b:	eb 0e                	jmp    40206b <rio_read+0x7e>
  40205d:	48 c7 c0 ff ff ff ff 	mov    $0xffffffffffffffff,%rax
  402064:	eb 05                	jmp    40206b <rio_read+0x7e>
  402066:	b8 00 00 00 00       	mov    $0x0,%eax
  40206b:	5b                   	pop    %rbx
  40206c:	5d                   	pop    %rbp
  40206d:	41 5c                	pop    %r12
  40206f:	41 5d                	pop    %r13
  402071:	41 5e                	pop    %r14
  402073:	c3                   	ret    

0000000000402074 <rio_readlineb>:
  402074:	41 55                	push   %r13
  402076:	41 54                	push   %r12
  402078:	55                   	push   %rbp
  402079:	53                   	push   %rbx
  40207a:	48 83 ec 18          	sub    $0x18,%rsp
  40207e:	49 89 fd             	mov    %rdi,%r13
  402081:	48 89 f5             	mov    %rsi,%rbp
  402084:	49 89 d4             	mov    %rdx,%r12
  402087:	bb 01 00 00 00       	mov    $0x1,%ebx
  40208c:	eb 3d                	jmp    4020cb <rio_readlineb+0x57>
  40208e:	ba 01 00 00 00       	mov    $0x1,%edx
  402093:	48 8d 74 24 0f       	lea    0xf(%rsp),%rsi
  402098:	4c 89 ef             	mov    %r13,%rdi
  40209b:	e8 4d ff ff ff       	call   401fed <rio_read>
  4020a0:	83 f8 01             	cmp    $0x1,%eax
  4020a3:	75 12                	jne    4020b7 <rio_readlineb+0x43>
  4020a5:	48 8d 55 01          	lea    0x1(%rbp),%rdx
  4020a9:	0f b6 44 24 0f       	movzbl 0xf(%rsp),%eax
  4020ae:	88 45 00             	mov    %al,0x0(%rbp)
  4020b1:	3c 0a                	cmp    $0xa,%al
  4020b3:	75 0f                	jne    4020c4 <rio_readlineb+0x50>
  4020b5:	eb 1b                	jmp    4020d2 <rio_readlineb+0x5e>
  4020b7:	85 c0                	test   %eax,%eax
  4020b9:	75 23                	jne    4020de <rio_readlineb+0x6a>
  4020bb:	48 83 fb 01          	cmp    $0x1,%rbx
  4020bf:	90                   	nop
  4020c0:	75 13                	jne    4020d5 <rio_readlineb+0x61>
  4020c2:	eb 23                	jmp    4020e7 <rio_readlineb+0x73>
  4020c4:	48 83 c3 01          	add    $0x1,%rbx
  4020c8:	48 89 d5             	mov    %rdx,%rbp
  4020cb:	4c 39 e3             	cmp    %r12,%rbx
  4020ce:	72 be                	jb     40208e <rio_readlineb+0x1a>
  4020d0:	eb 03                	jmp    4020d5 <rio_readlineb+0x61>
  4020d2:	48 89 d5             	mov    %rdx,%rbp
  4020d5:	c6 45 00 00          	movb   $0x0,0x0(%rbp)
  4020d9:	48 89 d8             	mov    %rbx,%rax
  4020dc:	eb 0e                	jmp    4020ec <rio_readlineb+0x78>
  4020de:	48 c7 c0 ff ff ff ff 	mov    $0xffffffffffffffff,%rax
  4020e5:	eb 05                	jmp    4020ec <rio_readlineb+0x78>
  4020e7:	b8 00 00 00 00       	mov    $0x0,%eax
  4020ec:	48 83 c4 18          	add    $0x18,%rsp
  4020f0:	5b                   	pop    %rbx
  4020f1:	5d                   	pop    %rbp
  4020f2:	41 5c                	pop    %r12
  4020f4:	41 5d                	pop    %r13
  4020f6:	c3                   	ret    

00000000004020f7 <submitr>:
  4020f7:	41 57                	push   %r15
  4020f9:	41 56                	push   %r14
  4020fb:	41 55                	push   %r13
  4020fd:	41 54                	push   %r12
  4020ff:	55                   	push   %rbp
  402100:	53                   	push   %rbx
  402101:	48 81 ec 48 a0 00 00 	sub    $0xa048,%rsp
  402108:	49 89 fc             	mov    %rdi,%r12
  40210b:	89 74 24 04          	mov    %esi,0x4(%rsp)
  40210f:	49 89 d7             	mov    %rdx,%r15
  402112:	49 89 ce             	mov    %rcx,%r14
  402115:	4c 89 44 24 08       	mov    %r8,0x8(%rsp)
  40211a:	4d 89 cd             	mov    %r9,%r13
  40211d:	48 8b 9c 24 80 a0 00 	mov    0xa080(%rsp),%rbx
  402124:	00 
  402125:	c7 84 24 1c 20 00 00 	movl   $0x0,0x201c(%rsp)
  40212c:	00 00 00 00 
  402130:	ba 00 00 00 00       	mov    $0x0,%edx
  402135:	be 01 00 00 00       	mov    $0x1,%esi
  40213a:	bf 02 00 00 00       	mov    $0x2,%edi
  40213f:	e8 cc ec ff ff       	call   400e10 <socket@plt>
  402144:	89 c5                	mov    %eax,%ebp
  402146:	85 c0                	test   %eax,%eax
  402148:	79 4e                	jns    402198 <submitr+0xa1>
  40214a:	48 b8 45 72 72 6f 72 	movabs $0x43203a726f727245,%rax
  402151:	3a 20 43 
  402154:	48 89 03             	mov    %rax,(%rbx)
  402157:	48 b8 6c 69 65 6e 74 	movabs $0x6e7520746e65696c,%rax
  40215e:	20 75 6e 
  402161:	48 89 43 08          	mov    %rax,0x8(%rbx)
  402165:	48 b8 61 62 6c 65 20 	movabs $0x206f7420656c6261,%rax
  40216c:	74 6f 20 
  40216f:	48 89 43 10          	mov    %rax,0x10(%rbx)
  402173:	48 b8 63 72 65 61 74 	movabs $0x7320657461657263,%rax
  40217a:	65 20 73 
  40217d:	48 89 43 18          	mov    %rax,0x18(%rbx)
  402181:	c7 43 20 6f 63 6b 65 	movl   $0x656b636f,0x20(%rbx)
  402188:	66 c7 43 24 74 00    	movw   $0x74,0x24(%rbx)
  40218e:	b8 ff ff ff ff       	mov    $0xffffffff,%eax
  402193:	e9 68 06 00 00       	jmp    402800 <submitr+0x709>
  402198:	4c 89 e7             	mov    %r12,%rdi
  40219b:	e8 50 eb ff ff       	call   400cf0 <gethostbyname@plt>
  4021a0:	48 85 c0             	test   %rax,%rax
  4021a3:	75 67                	jne    40220c <submitr+0x115>
  4021a5:	48 b8 45 72 72 6f 72 	movabs $0x44203a726f727245,%rax
  4021ac:	3a 20 44 
  4021af:	48 89 03             	mov    %rax,(%rbx)
  4021b2:	48 b8 4e 53 20 69 73 	movabs $0x6e7520736920534e,%rax
  4021b9:	20 75 6e 
  4021bc:	48 89 43 08          	mov    %rax,0x8(%rbx)
  4021c0:	48 b8 61 62 6c 65 20 	movabs $0x206f7420656c6261,%rax
  4021c7:	74 6f 20 
  4021ca:	48 89 43 10          	mov    %rax,0x10(%rbx)
  4021ce:	48 b8 72 65 73 6f 6c 	movabs $0x2065766c6f736572,%rax
  4021d5:	76 65 20 
  4021d8:	48 89 43 18          	mov    %rax,0x18(%rbx)
  4021dc:	48 b8 73 65 72 76 65 	movabs $0x6120726576726573,%rax
  4021e3:	72 20 61 
  4021e6:	48 89 43 20          	mov    %rax,0x20(%rbx)
  4021ea:	c7 43 28 64 64 72 65 	movl   $0x65726464,0x28(%rbx)
  4021f1:	66 c7 43 2c 73 73    	movw   $0x7373,0x2c(%rbx)
  4021f7:	c6 43 2e 00          	movb   $0x0,0x2e(%rbx)
  4021fb:	89 ef                	mov    %ebp,%edi
  4021fd:	e8 ae ea ff ff       	call   400cb0 <close@plt>
  402202:	b8 ff ff ff ff       	mov    $0xffffffff,%eax
  402207:	e9 f4 05 00 00       	jmp    402800 <submitr+0x709>
  40220c:	48 c7 84 24 30 a0 00 	movq   $0x0,0xa030(%rsp)
  402213:	00 00 00 00 00 
  402218:	48 c7 84 24 38 a0 00 	movq   $0x0,0xa038(%rsp)
  40221f:	00 00 00 00 00 
  402224:	66 c7 84 24 30 a0 00 	movw   $0x2,0xa030(%rsp)
  40222b:	00 02 00 
  40222e:	48 8b 48 18          	mov    0x18(%rax),%rcx
  402232:	48 63 50 14          	movslq 0x14(%rax),%rdx
  402236:	48 8d b4 24 34 a0 00 	lea    0xa034(%rsp),%rsi
  40223d:	00 
  40223e:	48 8b 39             	mov    (%rcx),%rdi
  402241:	e8 4a eb ff ff       	call   400d90 <bcopy@plt>
  402246:	0f b7 44 24 04       	movzwl 0x4(%rsp),%eax
  40224b:	66 c1 c8 08          	ror    $0x8,%ax
  40224f:	66 89 84 24 32 a0 00 	mov    %ax,0xa032(%rsp)
  402256:	00 
  402257:	ba 10 00 00 00       	mov    $0x10,%edx
  40225c:	48 8d b4 24 30 a0 00 	lea    0xa030(%rsp),%rsi
  402263:	00 
  402264:	89 ef                	mov    %ebp,%edi
  402266:	e8 95 eb ff ff       	call   400e00 <connect@plt>
  40226b:	85 c0                	test   %eax,%eax
  40226d:	79 59                	jns    4022c8 <submitr+0x1d1>
  40226f:	48 b8 45 72 72 6f 72 	movabs $0x55203a726f727245,%rax
  402276:	3a 20 55 
  402279:	48 89 03             	mov    %rax,(%rbx)
  40227c:	48 b8 6e 61 62 6c 65 	movabs $0x6f7420656c62616e,%rax
  402283:	20 74 6f 
  402286:	48 89 43 08          	mov    %rax,0x8(%rbx)
  40228a:	48 b8 20 63 6f 6e 6e 	movabs $0x7463656e6e6f6320,%rax
  402291:	65 63 74 
  402294:	48 89 43 10          	mov    %rax,0x10(%rbx)
  402298:	48 b8 20 74 6f 20 74 	movabs $0x20656874206f7420,%rax
  40229f:	68 65 20 
  4022a2:	48 89 43 18          	mov    %rax,0x18(%rbx)
  4022a6:	c7 43 20 73 65 72 76 	movl   $0x76726573,0x20(%rbx)
  4022ad:	66 c7 43 24 65 72    	movw   $0x7265,0x24(%rbx)
  4022b3:	c6 43 26 00          	movb   $0x0,0x26(%rbx)
  4022b7:	89 ef                	mov    %ebp,%edi
  4022b9:	e8 f2 e9 ff ff       	call   400cb0 <close@plt>
  4022be:	b8 ff ff ff ff       	mov    $0xffffffff,%eax
  4022c3:	e9 38 05 00 00       	jmp    402800 <submitr+0x709>
  4022c8:	48 c7 c2 ff ff ff ff 	mov    $0xffffffffffffffff,%rdx
  4022cf:	4c 89 ef             	mov    %r13,%rdi
  4022d2:	b8 00 00 00 00       	mov    $0x0,%eax
  4022d7:	48 89 d1             	mov    %rdx,%rcx
  4022da:	f2 ae                	repnz scas %es:(%rdi),%al
  4022dc:	48 f7 d1             	not    %rcx
  4022df:	48 89 ce             	mov    %rcx,%rsi
  4022e2:	4c 89 ff             	mov    %r15,%rdi
  4022e5:	48 89 d1             	mov    %rdx,%rcx
  4022e8:	f2 ae                	repnz scas %es:(%rdi),%al
  4022ea:	48 f7 d1             	not    %rcx
  4022ed:	49 89 c8             	mov    %rcx,%r8
  4022f0:	4c 89 f7             	mov    %r14,%rdi
  4022f3:	48 89 d1             	mov    %rdx,%rcx
  4022f6:	f2 ae                	repnz scas %es:(%rdi),%al
  4022f8:	49 29 c8             	sub    %rcx,%r8
  4022fb:	48 8b 7c 24 08       	mov    0x8(%rsp),%rdi
  402300:	48 89 d1             	mov    %rdx,%rcx
  402303:	f2 ae                	repnz scas %es:(%rdi),%al
  402305:	49 29 c8             	sub    %rcx,%r8
  402308:	48 8d 44 76 fd       	lea    -0x3(%rsi,%rsi,2),%rax
  40230d:	49 8d 44 00 7b       	lea    0x7b(%r8,%rax,1),%rax
  402312:	48 3d 00 20 00 00    	cmp    $0x2000,%rax
  402318:	76 72                	jbe    40238c <submitr+0x295>
  40231a:	48 b8 45 72 72 6f 72 	movabs $0x52203a726f727245,%rax
  402321:	3a 20 52 
  402324:	48 89 03             	mov    %rax,(%rbx)
  402327:	48 b8 65 73 75 6c 74 	movabs $0x747320746c757365,%rax
  40232e:	20 73 74 
  402331:	48 89 43 08          	mov    %rax,0x8(%rbx)
  402335:	48 b8 72 69 6e 67 20 	movabs $0x6f6f7420676e6972,%rax
  40233c:	74 6f 6f 
  40233f:	48 89 43 10          	mov    %rax,0x10(%rbx)
  402343:	48 b8 20 6c 61 72 67 	movabs $0x202e656772616c20,%rax
  40234a:	65 2e 20 
  40234d:	48 89 43 18          	mov    %rax,0x18(%rbx)
  402351:	48 b8 49 6e 63 72 65 	movabs $0x6573616572636e49,%rax
  402358:	61 73 65 
  40235b:	48 89 43 20          	mov    %rax,0x20(%rbx)
  40235f:	48 b8 20 53 55 42 4d 	movabs $0x5254494d42555320,%rax
  402366:	49 54 52 
  402369:	48 89 43 28          	mov    %rax,0x28(%rbx)
  40236d:	48 b8 5f 4d 41 58 42 	movabs $0x46554258414d5f,%rax
  402374:	55 46 00 
  402377:	48 89 43 30          	mov    %rax,0x30(%rbx)
  40237b:	89 ef                	mov    %ebp,%edi
  40237d:	e8 2e e9 ff ff       	call   400cb0 <close@plt>
  402382:	b8 ff ff ff ff       	mov    $0xffffffff,%eax
  402387:	e9 74 04 00 00       	jmp    402800 <submitr+0x709>
  40238c:	48 8d b4 24 20 40 00 	lea    0x4020(%rsp),%rsi
  402393:	00 
  402394:	b9 00 04 00 00       	mov    $0x400,%ecx
  402399:	b8 00 00 00 00       	mov    $0x0,%eax
  40239e:	48 89 f7             	mov    %rsi,%rdi
  4023a1:	f3 48 ab             	rep stos %rax,%es:(%rdi)
  4023a4:	4c 89 ef             	mov    %r13,%rdi
  4023a7:	e8 0f fb ff ff       	call   401ebb <urlencode>
  4023ac:	85 c0                	test   %eax,%eax
  4023ae:	0f 89 8a 00 00 00    	jns    40243e <submitr+0x347>
  4023b4:	48 b8 45 72 72 6f 72 	movabs $0x52203a726f727245,%rax
  4023bb:	3a 20 52 
  4023be:	48 89 03             	mov    %rax,(%rbx)
  4023c1:	48 b8 65 73 75 6c 74 	movabs $0x747320746c757365,%rax
  4023c8:	20 73 74 
  4023cb:	48 89 43 08          	mov    %rax,0x8(%rbx)
  4023cf:	48 b8 72 69 6e 67 20 	movabs $0x6e6f6320676e6972,%rax
  4023d6:	63 6f 6e 
  4023d9:	48 89 43 10          	mov    %rax,0x10(%rbx)
  4023dd:	48 b8 74 61 69 6e 73 	movabs $0x6e6120736e696174,%rax
  4023e4:	20 61 6e 
  4023e7:	48 89 43 18          	mov    %rax,0x18(%rbx)
  4023eb:	48 b8 20 69 6c 6c 65 	movabs $0x6c6167656c6c6920,%rax
  4023f2:	67 61 6c 
  4023f5:	48 89 43 20          	mov    %rax,0x20(%rbx)
  4023f9:	48 b8 20 6f 72 20 75 	movabs $0x72706e7520726f20,%rax
  402400:	6e 70 72 
  402403:	48 89 43 28          	mov    %rax,0x28(%rbx)
  402407:	48 b8 69 6e 74 61 62 	movabs $0x20656c6261746e69,%rax
  40240e:	6c 65 20 
  402411:	48 89 43 30          	mov    %rax,0x30(%rbx)
  402415:	48 b8 63 68 61 72 61 	movabs $0x6574636172616863,%rax
  40241c:	63 74 65 
  40241f:	48 89 43 38          	mov    %rax,0x38(%rbx)
  402423:	66 c7 43 40 72 2e    	movw   $0x2e72,0x40(%rbx)
  402429:	c6 43 42 00          	movb   $0x0,0x42(%rbx)
  40242d:	89 ef                	mov    %ebp,%edi
  40242f:	e8 7c e8 ff ff       	call   400cb0 <close@plt>
  402434:	b8 ff ff ff ff       	mov    $0xffffffff,%eax
  402439:	e9 c2 03 00 00       	jmp    402800 <submitr+0x709>
  40243e:	4d 89 e1             	mov    %r12,%r9
  402441:	4c 8d 84 24 20 40 00 	lea    0x4020(%rsp),%r8
  402448:	00 
  402449:	4c 89 f9             	mov    %r15,%rcx
  40244c:	4c 89 f2             	mov    %r14,%rdx
  40244f:	be a8 32 40 00       	mov    $0x4032a8,%esi
  402454:	48 8d bc 24 20 60 00 	lea    0x6020(%rsp),%rdi
  40245b:	00 
  40245c:	b8 00 00 00 00       	mov    $0x0,%eax
  402461:	e8 7a e9 ff ff       	call   400de0 <sprintf@plt>
  402466:	48 8d bc 24 20 60 00 	lea    0x6020(%rsp),%rdi
  40246d:	00 
  40246e:	b8 00 00 00 00       	mov    $0x0,%eax
  402473:	48 c7 c1 ff ff ff ff 	mov    $0xffffffffffffffff,%rcx
  40247a:	f2 ae                	repnz scas %es:(%rdi),%al
  40247c:	48 f7 d1             	not    %rcx
  40247f:	48 8d 51 ff          	lea    -0x1(%rcx),%rdx
  402483:	48 8d b4 24 20 60 00 	lea    0x6020(%rsp),%rsi
  40248a:	00 
  40248b:	89 ef                	mov    %ebp,%edi
  40248d:	e8 ff fa ff ff       	call   401f91 <rio_writen>
  402492:	48 85 c0             	test   %rax,%rax
  402495:	79 6e                	jns    402505 <submitr+0x40e>
  402497:	48 b8 45 72 72 6f 72 	movabs $0x43203a726f727245,%rax
  40249e:	3a 20 43 
  4024a1:	48 89 03             	mov    %rax,(%rbx)
  4024a4:	48 b8 6c 69 65 6e 74 	movabs $0x6e7520746e65696c,%rax
  4024ab:	20 75 6e 
  4024ae:	48 89 43 08          	mov    %rax,0x8(%rbx)
  4024b2:	48 b8 61 62 6c 65 20 	movabs $0x206f7420656c6261,%rax
  4024b9:	74 6f 20 
  4024bc:	48 89 43 10          	mov    %rax,0x10(%rbx)
  4024c0:	48 b8 77 72 69 74 65 	movabs $0x6f74206574697277,%rax
  4024c7:	20 74 6f 
  4024ca:	48 89 43 18          	mov    %rax,0x18(%rbx)
  4024ce:	48 b8 20 74 68 65 20 	movabs $0x7365722065687420,%rax
  4024d5:	72 65 73 
  4024d8:	48 89 43 20          	mov    %rax,0x20(%rbx)
  4024dc:	48 b8 75 6c 74 20 73 	movabs $0x7672657320746c75,%rax
  4024e3:	65 72 76 
  4024e6:	48 89 43 28          	mov    %rax,0x28(%rbx)
  4024ea:	66 c7 43 30 65 72    	movw   $0x7265,0x30(%rbx)
  4024f0:	c6 43 32 00          	movb   $0x0,0x32(%rbx)
  4024f4:	89 ef                	mov    %ebp,%edi
  4024f6:	e8 b5 e7 ff ff       	call   400cb0 <close@plt>
  4024fb:	b8 ff ff ff ff       	mov    $0xffffffff,%eax
  402500:	e9 fb 02 00 00       	jmp    402800 <submitr+0x709>
  402505:	89 ee                	mov    %ebp,%esi
  402507:	48 8d bc 24 20 80 00 	lea    0x8020(%rsp),%rdi
  40250e:	00 
  40250f:	e8 6c f9 ff ff       	call   401e80 <rio_readinitb>
  402514:	ba 00 20 00 00       	mov    $0x2000,%edx
  402519:	48 8d b4 24 20 60 00 	lea    0x6020(%rsp),%rsi
  402520:	00 
  402521:	48 8d bc 24 20 80 00 	lea    0x8020(%rsp),%rdi
  402528:	00 
  402529:	e8 46 fb ff ff       	call   402074 <rio_readlineb>
  40252e:	48 85 c0             	test   %rax,%rax
  402531:	7f 7d                	jg     4025b0 <submitr+0x4b9>
  402533:	48 b8 45 72 72 6f 72 	movabs $0x43203a726f727245,%rax
  40253a:	3a 20 43 
  40253d:	48 89 03             	mov    %rax,(%rbx)
  402540:	48 b8 6c 69 65 6e 74 	movabs $0x6e7520746e65696c,%rax
  402547:	20 75 6e 
  40254a:	48 89 43 08          	mov    %rax,0x8(%rbx)
  40254e:	48 b8 61 62 6c 65 20 	movabs $0x206f7420656c6261,%rax
  402555:	74 6f 20 
  402558:	48 89 43 10          	mov    %rax,0x10(%rbx)
  40255c:	48 b8 72 65 61 64 20 	movabs $0x7269662064616572,%rax
  402563:	66 69 72 
  402566:	48 89 43 18          	mov    %rax,0x18(%rbx)
  40256a:	48 b8 73 74 20 68 65 	movabs $0x6564616568207473,%rax
  402571:	61 64 65 
  402574:	48 89 43 20          	mov    %rax,0x20(%rbx)
  402578:	48 b8 72 20 66 72 6f 	movabs $0x72206d6f72662072,%rax
  40257f:	6d 20 72 
  402582:	48 89 43 28          	mov    %rax,0x28(%rbx)
  402586:	48 b8 65 73 75 6c 74 	movabs $0x657320746c757365,%rax
  40258d:	20 73 65 
  402590:	48 89 43 30          	mov    %rax,0x30(%rbx)
  402594:	c7 43 38 72 76 65 72 	movl   $0x72657672,0x38(%rbx)
  40259b:	c6 43 3c 00          	movb   $0x0,0x3c(%rbx)
  40259f:	89 ef                	mov    %ebp,%edi
  4025a1:	e8 0a e7 ff ff       	call   400cb0 <close@plt>
  4025a6:	b8 ff ff ff ff       	mov    $0xffffffff,%eax
  4025ab:	e9 50 02 00 00       	jmp    402800 <submitr+0x709>
  4025b0:	4c 8d 44 24 10       	lea    0x10(%rsp),%r8
  4025b5:	48 8d 8c 24 1c 20 00 	lea    0x201c(%rsp),%rcx
  4025bc:	00 
  4025bd:	48 8d 94 24 20 20 00 	lea    0x2020(%rsp),%rdx
  4025c4:	00 
  4025c5:	be 1f 33 40 00       	mov    $0x40331f,%esi
  4025ca:	48 8d bc 24 20 60 00 	lea    0x6020(%rsp),%rdi
  4025d1:	00 
  4025d2:	b8 00 00 00 00       	mov    $0x0,%eax
  4025d7:	e8 94 e7 ff ff       	call   400d70 <__isoc99_sscanf@plt>
  4025dc:	e9 98 00 00 00       	jmp    402679 <submitr+0x582>
  4025e1:	ba 00 20 00 00       	mov    $0x2000,%edx
  4025e6:	48 8d b4 24 20 60 00 	lea    0x6020(%rsp),%rsi
  4025ed:	00 
  4025ee:	48 8d bc 24 20 80 00 	lea    0x8020(%rsp),%rdi
  4025f5:	00 
  4025f6:	e8 79 fa ff ff       	call   402074 <rio_readlineb>
  4025fb:	48 85 c0             	test   %rax,%rax
  4025fe:	7f 79                	jg     402679 <submitr+0x582>
  402600:	48 b8 45 72 72 6f 72 	movabs $0x43203a726f727245,%rax
  402607:	3a 20 43 
  40260a:	48 89 03             	mov    %rax,(%rbx)
  40260d:	48 b8 6c 69 65 6e 74 	movabs $0x6e7520746e65696c,%rax
  402614:	20 75 6e 
  402617:	48 89 43 08          	mov    %rax,0x8(%rbx)
  40261b:	48 b8 61 62 6c 65 20 	movabs $0x206f7420656c6261,%rax
  402622:	74 6f 20 
  402625:	48 89 43 10          	mov    %rax,0x10(%rbx)
  402629:	48 b8 72 65 61 64 20 	movabs $0x6165682064616572,%rax
  402630:	68 65 61 
  402633:	48 89 43 18          	mov    %rax,0x18(%rbx)
  402637:	48 b8 64 65 72 73 20 	movabs $0x6f72662073726564,%rax
  40263e:	66 72 6f 
  402641:	48 89 43 20          	mov    %rax,0x20(%rbx)
  402645:	48 b8 6d 20 74 68 65 	movabs $0x657220656874206d,%rax
  40264c:	20 72 65 
  40264f:	48 89 43 28          	mov    %rax,0x28(%rbx)
  402653:	48 b8 73 75 6c 74 20 	movabs $0x72657320746c7573,%rax
  40265a:	73 65 72 
  40265d:	48 89 43 30          	mov    %rax,0x30(%rbx)
  402661:	c7 43 38 76 65 72 00 	movl   $0x726576,0x38(%rbx)
  402668:	89 ef                	mov    %ebp,%edi
  40266a:	e8 41 e6 ff ff       	call   400cb0 <close@plt>
  40266f:	b8 ff ff ff ff       	mov    $0xffffffff,%eax
  402674:	e9 87 01 00 00       	jmp    402800 <submitr+0x709>
  402679:	0f b6 84 24 20 60 00 	movzbl 0x6020(%rsp),%eax
  402680:	00 
  402681:	83 e8 0d             	sub    $0xd,%eax
  402684:	75 15                	jne    40269b <submitr+0x5a4>
  402686:	0f b6 84 24 21 60 00 	movzbl 0x6021(%rsp),%eax
  40268d:	00 
  40268e:	83 e8 0a             	sub    $0xa,%eax
  402691:	75 08                	jne    40269b <submitr+0x5a4>
  402693:	0f b6 84 24 22 60 00 	movzbl 0x6022(%rsp),%eax
  40269a:	00 
  40269b:	85 c0                	test   %eax,%eax
  40269d:	0f 85 3e ff ff ff    	jne    4025e1 <submitr+0x4ea>
  4026a3:	ba 00 20 00 00       	mov    $0x2000,%edx
  4026a8:	48 8d b4 24 20 60 00 	lea    0x6020(%rsp),%rsi
  4026af:	00 
  4026b0:	48 8d bc 24 20 80 00 	lea    0x8020(%rsp),%rdi
  4026b7:	00 
  4026b8:	e8 b7 f9 ff ff       	call   402074 <rio_readlineb>
  4026bd:	48 85 c0             	test   %rax,%rax
  4026c0:	0f 8f 83 00 00 00    	jg     402749 <submitr+0x652>
  4026c6:	48 b8 45 72 72 6f 72 	movabs $0x43203a726f727245,%rax
  4026cd:	3a 20 43 
  4026d0:	48 89 03             	mov    %rax,(%rbx)
  4026d3:	48 b8 6c 69 65 6e 74 	movabs $0x6e7520746e65696c,%rax
  4026da:	20 75 6e 
  4026dd:	48 89 43 08          	mov    %rax,0x8(%rbx)
  4026e1:	48 b8 61 62 6c 65 20 	movabs $0x206f7420656c6261,%rax
  4026e8:	74 6f 20 
  4026eb:	48 89 43 10          	mov    %rax,0x10(%rbx)
  4026ef:	48 b8 72 65 61 64 20 	movabs $0x6174732064616572,%rax
  4026f6:	73 74 61 
  4026f9:	48 89 43 18          	mov    %rax,0x18(%rbx)
  4026fd:	48 b8 74 75 73 20 6d 	movabs $0x7373656d20737574,%rax
  402704:	65 73 73 
  402707:	48 89 43 20          	mov    %rax,0x20(%rbx)
  40270b:	48 b8 61 67 65 20 66 	movabs $0x6d6f726620656761,%rax
  402712:	72 6f 6d 
  402715:	48 89 43 28          	mov    %rax,0x28(%rbx)
  402719:	48 b8 20 72 65 73 75 	movabs $0x20746c7573657220,%rax
  402720:	6c 74 20 
  402723:	48 89 43 30          	mov    %rax,0x30(%rbx)
  402727:	c7 43 38 73 65 72 76 	movl   $0x76726573,0x38(%rbx)
  40272e:	66 c7 43 3c 65 72    	movw   $0x7265,0x3c(%rbx)
  402734:	c6 43 3e 00          	movb   $0x0,0x3e(%rbx)
  402738:	89 ef                	mov    %ebp,%edi
  40273a:	e8 71 e5 ff ff       	call   400cb0 <close@plt>
  40273f:	b8 ff ff ff ff       	mov    $0xffffffff,%eax
  402744:	e9 b7 00 00 00       	jmp    402800 <submitr+0x709>
  402749:	8b 94 24 1c 20 00 00 	mov    0x201c(%rsp),%edx
  402750:	81 fa c8 00 00 00    	cmp    $0xc8,%edx
  402756:	74 28                	je     402780 <submitr+0x689>
  402758:	48 8d 4c 24 10       	lea    0x10(%rsp),%rcx
  40275d:	be e8 32 40 00       	mov    $0x4032e8,%esi
  402762:	48 89 df             	mov    %rbx,%rdi
  402765:	b8 00 00 00 00       	mov    $0x0,%eax
  40276a:	e8 71 e6 ff ff       	call   400de0 <sprintf@plt>
  40276f:	89 ef                	mov    %ebp,%edi
  402771:	e8 3a e5 ff ff       	call   400cb0 <close@plt>
  402776:	b8 ff ff ff ff       	mov    $0xffffffff,%eax
  40277b:	e9 80 00 00 00       	jmp    402800 <submitr+0x709>
  402780:	48 8d b4 24 20 60 00 	lea    0x6020(%rsp),%rsi
  402787:	00 
  402788:	48 89 df             	mov    %rbx,%rdi
  40278b:	e8 b0 e4 ff ff       	call   400c40 <strcpy@plt>
  402790:	89 ef                	mov    %ebp,%edi
  402792:	e8 19 e5 ff ff       	call   400cb0 <close@plt>
  402797:	0f b6 03             	movzbl (%rbx),%eax
  40279a:	83 e8 4f             	sub    $0x4f,%eax
  40279d:	75 18                	jne    4027b7 <submitr+0x6c0>
  40279f:	0f b6 53 01          	movzbl 0x1(%rbx),%edx
  4027a3:	83 ea 4b             	sub    $0x4b,%edx
  4027a6:	75 11                	jne    4027b9 <submitr+0x6c2>
  4027a8:	0f b6 53 02          	movzbl 0x2(%rbx),%edx
  4027ac:	83 ea 0a             	sub    $0xa,%edx
  4027af:	75 08                	jne    4027b9 <submitr+0x6c2>
  4027b1:	0f b6 53 03          	movzbl 0x3(%rbx),%edx
  4027b5:	eb 02                	jmp    4027b9 <submitr+0x6c2>
  4027b7:	89 c2                	mov    %eax,%edx
  4027b9:	85 d2                	test   %edx,%edx
  4027bb:	74 30                	je     4027ed <submitr+0x6f6>
  4027bd:	bf 30 33 40 00       	mov    $0x403330,%edi
  4027c2:	b9 05 00 00 00       	mov    $0x5,%ecx
  4027c7:	48 89 de             	mov    %rbx,%rsi
  4027ca:	f3 a6                	repz cmpsb %es:(%rdi),%ds:(%rsi)
  4027cc:	0f 97 c1             	seta   %cl
  4027cf:	0f 92 c2             	setb   %dl
  4027d2:	38 d1                	cmp    %dl,%cl
  4027d4:	74 1e                	je     4027f4 <submitr+0x6fd>
  4027d6:	85 c0                	test   %eax,%eax
  4027d8:	75 0d                	jne    4027e7 <submitr+0x6f0>
  4027da:	0f b6 43 01          	movzbl 0x1(%rbx),%eax
  4027de:	83 e8 4b             	sub    $0x4b,%eax
  4027e1:	75 04                	jne    4027e7 <submitr+0x6f0>
  4027e3:	0f b6 43 02          	movzbl 0x2(%rbx),%eax
  4027e7:	85 c0                	test   %eax,%eax
  4027e9:	75 10                	jne    4027fb <submitr+0x704>
  4027eb:	eb 13                	jmp    402800 <submitr+0x709>
  4027ed:	b8 00 00 00 00       	mov    $0x0,%eax
  4027f2:	eb 0c                	jmp    402800 <submitr+0x709>
  4027f4:	b8 00 00 00 00       	mov    $0x0,%eax
  4027f9:	eb 05                	jmp    402800 <submitr+0x709>
  4027fb:	b8 ff ff ff ff       	mov    $0xffffffff,%eax
  402800:	48 81 c4 48 a0 00 00 	add    $0xa048,%rsp
  402807:	5b                   	pop    %rbx
  402808:	5d                   	pop    %rbp
  402809:	41 5c                	pop    %r12
  40280b:	41 5d                	pop    %r13
  40280d:	41 5e                	pop    %r14
  40280f:	41 5f                	pop    %r15
  402811:	c3                   	ret    

0000000000402812 <init_timeout>:
  402812:	53                   	push   %rbx
  402813:	89 fb                	mov    %edi,%ebx
  402815:	85 ff                	test   %edi,%edi
  402817:	74 1f                	je     402838 <init_timeout+0x26>
  402819:	85 ff                	test   %edi,%edi
  40281b:	79 05                	jns    402822 <init_timeout+0x10>
  40281d:	bb 00 00 00 00       	mov    $0x0,%ebx
  402822:	be 92 1e 40 00       	mov    $0x401e92,%esi
  402827:	bf 0e 00 00 00       	mov    $0xe,%edi
  40282c:	e8 af e4 ff ff       	call   400ce0 <signal@plt>
  402831:	89 df                	mov    %ebx,%edi
  402833:	e8 68 e4 ff ff       	call   400ca0 <alarm@plt>
  402838:	5b                   	pop    %rbx
  402839:	c3                   	ret    

000000000040283a <init_driver>:
  40283a:	55                   	push   %rbp
  40283b:	53                   	push   %rbx
  40283c:	48 83 ec 18          	sub    $0x18,%rsp
  402840:	48 89 fd             	mov    %rdi,%rbp
  402843:	be 01 00 00 00       	mov    $0x1,%esi
  402848:	bf 0d 00 00 00       	mov    $0xd,%edi
  40284d:	e8 8e e4 ff ff       	call   400ce0 <signal@plt>
  402852:	be 01 00 00 00       	mov    $0x1,%esi
  402857:	bf 1d 00 00 00       	mov    $0x1d,%edi
  40285c:	e8 7f e4 ff ff       	call   400ce0 <signal@plt>
  402861:	be 01 00 00 00       	mov    $0x1,%esi
  402866:	bf 1d 00 00 00       	mov    $0x1d,%edi
  40286b:	e8 70 e4 ff ff       	call   400ce0 <signal@plt>
  402870:	ba 00 00 00 00       	mov    $0x0,%edx
  402875:	be 01 00 00 00       	mov    $0x1,%esi
  40287a:	bf 02 00 00 00       	mov    $0x2,%edi
  40287f:	e8 8c e5 ff ff       	call   400e10 <socket@plt>
  402884:	89 c3                	mov    %eax,%ebx
  402886:	85 c0                	test   %eax,%eax
  402888:	79 4f                	jns    4028d9 <init_driver+0x9f>
  40288a:	48 b8 45 72 72 6f 72 	movabs $0x43203a726f727245,%rax
  402891:	3a 20 43 
  402894:	48 89 45 00          	mov    %rax,0x0(%rbp)
  402898:	48 b8 6c 69 65 6e 74 	movabs $0x6e7520746e65696c,%rax
  40289f:	20 75 6e 
  4028a2:	48 89 45 08          	mov    %rax,0x8(%rbp)
  4028a6:	48 b8 61 62 6c 65 20 	movabs $0x206f7420656c6261,%rax
  4028ad:	74 6f 20 
  4028b0:	48 89 45 10          	mov    %rax,0x10(%rbp)
  4028b4:	48 b8 63 72 65 61 74 	movabs $0x7320657461657263,%rax
  4028bb:	65 20 73 
  4028be:	48 89 45 18          	mov    %rax,0x18(%rbp)
  4028c2:	c7 45 20 6f 63 6b 65 	movl   $0x656b636f,0x20(%rbp)
  4028c9:	66 c7 45 24 74 00    	movw   $0x74,0x24(%rbp)
  4028cf:	b8 ff ff ff ff       	mov    $0xffffffff,%eax
  4028d4:	e9 23 01 00 00       	jmp    4029fc <init_driver+0x1c2>
  4028d9:	bf 35 33 40 00       	mov    $0x403335,%edi
  4028de:	e8 0d e4 ff ff       	call   400cf0 <gethostbyname@plt>
  4028e3:	48 85 c0             	test   %rax,%rax
  4028e6:	75 68                	jne    402950 <init_driver+0x116>
  4028e8:	48 b8 45 72 72 6f 72 	movabs $0x44203a726f727245,%rax
  4028ef:	3a 20 44 
  4028f2:	48 89 45 00          	mov    %rax,0x0(%rbp)
  4028f6:	48 b8 4e 53 20 69 73 	movabs $0x6e7520736920534e,%rax
  4028fd:	20 75 6e 
  402900:	48 89 45 08          	mov    %rax,0x8(%rbp)
  402904:	48 b8 61 62 6c 65 20 	movabs $0x206f7420656c6261,%rax
  40290b:	74 6f 20 
  40290e:	48 89 45 10          	mov    %rax,0x10(%rbp)
  402912:	48 b8 72 65 73 6f 6c 	movabs $0x2065766c6f736572,%rax
  402919:	76 65 20 
  40291c:	48 89 45 18          	mov    %rax,0x18(%rbp)
  402920:	48 b8 73 65 72 76 65 	movabs $0x6120726576726573,%rax
  402927:	72 20 61 
  40292a:	48 89 45 20          	mov    %rax,0x20(%rbp)
  40292e:	c7 45 28 64 64 72 65 	movl   $0x65726464,0x28(%rbp)
  402935:	66 c7 45 2c 73 73    	movw   $0x7373,0x2c(%rbp)
  40293b:	c6 45 2e 00          	movb   $0x0,0x2e(%rbp)
  40293f:	89 df                	mov    %ebx,%edi
  402941:	e8 6a e3 ff ff       	call   400cb0 <close@plt>
  402946:	b8 ff ff ff ff       	mov    $0xffffffff,%eax
  40294b:	e9 ac 00 00 00       	jmp    4029fc <init_driver+0x1c2>
  402950:	48 c7 04 24 00 00 00 	movq   $0x0,(%rsp)
  402957:	00 
  402958:	48 c7 44 24 08 00 00 	movq   $0x0,0x8(%rsp)
  40295f:	00 00 
  402961:	66 c7 04 24 02 00    	movw   $0x2,(%rsp)
  402967:	48 8b 48 18          	mov    0x18(%rax),%rcx
  40296b:	48 63 50 14          	movslq 0x14(%rax),%rdx
  40296f:	48 8d 74 24 04       	lea    0x4(%rsp),%rsi
  402974:	48 8b 39             	mov    (%rcx),%rdi
  402977:	e8 14 e4 ff ff       	call   400d90 <bcopy@plt>
  40297c:	66 c7 44 24 02 3c 9a 	movw   $0x9a3c,0x2(%rsp)
  402983:	ba 10 00 00 00       	mov    $0x10,%edx
  402988:	48 89 e6             	mov    %rsp,%rsi
  40298b:	89 df                	mov    %ebx,%edi
  40298d:	e8 6e e4 ff ff       	call   400e00 <connect@plt>
  402992:	85 c0                	test   %eax,%eax
  402994:	79 50                	jns    4029e6 <init_driver+0x1ac>
  402996:	48 b8 45 72 72 6f 72 	movabs $0x55203a726f727245,%rax
  40299d:	3a 20 55 
  4029a0:	48 89 45 00          	mov    %rax,0x0(%rbp)
  4029a4:	48 b8 6e 61 62 6c 65 	movabs $0x6f7420656c62616e,%rax
  4029ab:	20 74 6f 
  4029ae:	48 89 45 08          	mov    %rax,0x8(%rbp)
  4029b2:	48 b8 20 63 6f 6e 6e 	movabs $0x7463656e6e6f6320,%rax
  4029b9:	65 63 74 
  4029bc:	48 89 45 10          	mov    %rax,0x10(%rbp)
  4029c0:	48 b8 20 74 6f 20 73 	movabs $0x76726573206f7420,%rax
  4029c7:	65 72 76 
  4029ca:	48 89 45 18          	mov    %rax,0x18(%rbp)
  4029ce:	66 c7 45 20 65 72    	movw   $0x7265,0x20(%rbp)
  4029d4:	c6 45 22 00          	movb   $0x0,0x22(%rbp)
  4029d8:	89 df                	mov    %ebx,%edi
  4029da:	e8 d1 e2 ff ff       	call   400cb0 <close@plt>
  4029df:	b8 ff ff ff ff       	mov    $0xffffffff,%eax
  4029e4:	eb 16                	jmp    4029fc <init_driver+0x1c2>
  4029e6:	89 df                	mov    %ebx,%edi
  4029e8:	e8 c3 e2 ff ff       	call   400cb0 <close@plt>
  4029ed:	66 c7 45 00 4f 4b    	movw   $0x4b4f,0x0(%rbp)
  4029f3:	c6 45 02 00          	movb   $0x0,0x2(%rbp)
  4029f7:	b8 00 00 00 00       	mov    $0x0,%eax
  4029fc:	48 83 c4 18          	add    $0x18,%rsp
  402a00:	5b                   	pop    %rbx
  402a01:	5d                   	pop    %rbp
  402a02:	c3                   	ret    

0000000000402a03 <driver_post>:
  402a03:	53                   	push   %rbx
  402a04:	48 83 ec 10          	sub    $0x10,%rsp
  402a08:	4c 89 cb             	mov    %r9,%rbx
  402a0b:	45 85 c0             	test   %r8d,%r8d
  402a0e:	74 22                	je     402a32 <driver_post+0x2f>
  402a10:	48 89 ce             	mov    %rcx,%rsi
  402a13:	bf 3f 33 40 00       	mov    $0x40333f,%edi
  402a18:	b8 00 00 00 00       	mov    $0x0,%eax
  402a1d:	e8 5e e2 ff ff       	call   400c80 <printf@plt>
  402a22:	66 c7 03 4f 4b       	movw   $0x4b4f,(%rbx)
  402a27:	c6 43 02 00          	movb   $0x0,0x2(%rbx)
  402a2b:	b8 00 00 00 00       	mov    $0x0,%eax
  402a30:	eb 39                	jmp    402a6b <driver_post+0x68>
  402a32:	48 85 ff             	test   %rdi,%rdi
  402a35:	74 26                	je     402a5d <driver_post+0x5a>
  402a37:	80 3f 00             	cmpb   $0x0,(%rdi)
  402a3a:	74 21                	je     402a5d <driver_post+0x5a>
  402a3c:	4c 89 0c 24          	mov    %r9,(%rsp)
  402a40:	49 89 c9             	mov    %rcx,%r9
  402a43:	49 89 d0             	mov    %rdx,%r8
  402a46:	48 89 f9             	mov    %rdi,%rcx
  402a49:	48 89 f2             	mov    %rsi,%rdx
  402a4c:	be 9a 3c 00 00       	mov    $0x3c9a,%esi
  402a51:	bf 35 33 40 00       	mov    $0x403335,%edi
  402a56:	e8 9c f6 ff ff       	call   4020f7 <submitr>
  402a5b:	eb 0e                	jmp    402a6b <driver_post+0x68>
  402a5d:	66 c7 03 4f 4b       	movw   $0x4b4f,(%rbx)
  402a62:	c6 43 02 00          	movb   $0x0,0x2(%rbx)
  402a66:	b8 00 00 00 00       	mov    $0x0,%eax
  402a6b:	48 83 c4 10          	add    $0x10,%rsp
  402a6f:	5b                   	pop    %rbx
  402a70:	c3                   	ret    

0000000000402a71 <check>:
  402a71:	89 f8                	mov    %edi,%eax
  402a73:	c1 e8 1c             	shr    $0x1c,%eax
  402a76:	85 c0                	test   %eax,%eax
  402a78:	74 1d                	je     402a97 <check+0x26>
  402a7a:	b9 00 00 00 00       	mov    $0x0,%ecx
  402a7f:	eb 0b                	jmp    402a8c <check+0x1b>
  402a81:	89 f8                	mov    %edi,%eax
  402a83:	d3 e8                	shr    %cl,%eax
  402a85:	3c 0a                	cmp    $0xa,%al
  402a87:	74 14                	je     402a9d <check+0x2c>
  402a89:	83 c1 08             	add    $0x8,%ecx
  402a8c:	83 f9 1f             	cmp    $0x1f,%ecx
  402a8f:	7e f0                	jle    402a81 <check+0x10>
  402a91:	b8 01 00 00 00       	mov    $0x1,%eax
  402a96:	c3                   	ret    
  402a97:	b8 00 00 00 00       	mov    $0x0,%eax
  402a9c:	c3                   	ret    
  402a9d:	b8 00 00 00 00       	mov    $0x0,%eax
  402aa2:	c3                   	ret    

0000000000402aa3 <gencookie>:
  402aa3:	53                   	push   %rbx
  402aa4:	83 c7 01             	add    $0x1,%edi
  402aa7:	e8 74 e1 ff ff       	call   400c20 <srandom@plt>
  402aac:	e8 9f e2 ff ff       	call   400d50 <random@plt>
  402ab1:	89 c3                	mov    %eax,%ebx
  402ab3:	89 c7                	mov    %eax,%edi
  402ab5:	e8 b7 ff ff ff       	call   402a71 <check>
  402aba:	85 c0                	test   %eax,%eax
  402abc:	74 ee                	je     402aac <gencookie+0x9>
  402abe:	89 d8                	mov    %ebx,%eax
  402ac0:	5b                   	pop    %rbx
  402ac1:	c3                   	ret    
  402ac2:	66 2e 0f 1f 84 00 00 	cs nopw 0x0(%rax,%rax,1)
  402ac9:	00 00 00 
  402acc:	0f 1f 40 00          	nopl   0x0(%rax)

0000000000402ad0 <__libc_csu_init>:
  402ad0:	41 57                	push   %r15
  402ad2:	41 89 ff             	mov    %edi,%r15d
  402ad5:	41 56                	push   %r14
  402ad7:	49 89 f6             	mov    %rsi,%r14
  402ada:	41 55                	push   %r13
  402adc:	49 89 d5             	mov    %rdx,%r13
  402adf:	41 54                	push   %r12
  402ae1:	4c 8d 25 28 13 20 00 	lea    0x201328(%rip),%r12        # 603e10 <__frame_dummy_init_array_entry>
  402ae8:	55                   	push   %rbp
  402ae9:	48 8d 2d 28 13 20 00 	lea    0x201328(%rip),%rbp        # 603e18 <__do_global_dtors_aux_fini_array_entry>
  402af0:	53                   	push   %rbx
  402af1:	4c 29 e5             	sub    %r12,%rbp
  402af4:	31 db                	xor    %ebx,%ebx
  402af6:	48 c1 fd 03          	sar    $0x3,%rbp
  402afa:	48 83 ec 08          	sub    $0x8,%rsp
  402afe:	e8 c5 e0 ff ff       	call   400bc8 <_init>
  402b03:	48 85 ed             	test   %rbp,%rbp
  402b06:	74 1e                	je     402b26 <__libc_csu_init+0x56>
  402b08:	0f 1f 84 00 00 00 00 	nopl   0x0(%rax,%rax,1)
  402b0f:	00 
  402b10:	4c 89 ea             	mov    %r13,%rdx
  402b13:	4c 89 f6             	mov    %r14,%rsi
  402b16:	44 89 ff             	mov    %r15d,%edi
  402b19:	41 ff 14 dc          	call   *(%r12,%rbx,8)
  402b1d:	48 83 c3 01          	add    $0x1,%rbx
  402b21:	48 39 eb             	cmp    %rbp,%rbx
  402b24:	75 ea                	jne    402b10 <__libc_csu_init+0x40>
  402b26:	48 83 c4 08          	add    $0x8,%rsp
  402b2a:	5b                   	pop    %rbx
  402b2b:	5d                   	pop    %rbp
  402b2c:	41 5c                	pop    %r12
  402b2e:	41 5d                	pop    %r13
  402b30:	41 5e                	pop    %r14
  402b32:	41 5f                	pop    %r15
  402b34:	c3                   	ret    
  402b35:	90                   	nop
  402b36:	66 2e 0f 1f 84 00 00 	cs nopw 0x0(%rax,%rax,1)
  402b3d:	00 00 00 

0000000000402b40 <__libc_csu_fini>:
  402b40:	f3 c3                	repz ret 

Disassembly of section .fini:

0000000000402b44 <_fini>:
  402b44:	48 83 ec 08          	sub    $0x8,%rsp
  402b48:	48 83 c4 08          	add    $0x8,%rsp
  402b4c:	c3                   	ret    
